
cpu1.elf:     file format elf32-littlenios2
cpu1.elf
architecture: nios2, flags 0x00000112:
EXEC_P, HAS_SYMS, D_PAGED
start address 0x000201b8

Program Header:
    LOAD off    0x00001000 vaddr 0x00020000 paddr 0x00020000 align 2**12
         filesz 0x00000020 memsz 0x00000020 flags r-x
    LOAD off    0x00001020 vaddr 0x00020020 paddr 0x00020020 align 2**12
         filesz 0x0000eae0 memsz 0x0000eae0 flags r-x
    LOAD off    0x0000fb00 vaddr 0x0002eb00 paddr 0x000305c8 align 2**12
         filesz 0x00001ac8 memsz 0x00001ac8 flags rw-
    LOAD off    0x00012090 vaddr 0x00032090 paddr 0x00032090 align 2**12
         filesz 0x00000000 memsz 0x000002ec flags rw-

Sections:
Idx Name          Size      VMA       LMA       File off  Algn
  0 .entry        00000020  00020000  00020000  00001000  2**5
                  CONTENTS, ALLOC, LOAD, READONLY, CODE
  1 .exceptions   00000198  00020020  00020020  00001020  2**2
                  CONTENTS, ALLOC, LOAD, READONLY, CODE
  2 .text         0000e5a8  000201b8  000201b8  000011b8  2**2
                  CONTENTS, ALLOC, LOAD, READONLY, CODE
  3 .rodata       000003a0  0002e760  0002e760  0000f760  2**2
                  CONTENTS, ALLOC, LOAD, READONLY, DATA
  4 .rwdata       00001ac8  0002eb00  000305c8  0000fb00  2**2
                  CONTENTS, ALLOC, LOAD, DATA, SMALL_DATA
  5 .bss          000002ec  00032090  00032090  00012090  2**2
                  ALLOC, SMALL_DATA
  6 .comment      00000023  00000000  00000000  000115c8  2**0
                  CONTENTS, READONLY
  7 .debug_aranges 00000ee0  00000000  00000000  000115f0  2**3
                  CONTENTS, READONLY, DEBUGGING
  8 .debug_info   0002a918  00000000  00000000  000124d0  2**0
                  CONTENTS, READONLY, DEBUGGING
  9 .debug_abbrev 0000a629  00000000  00000000  0003cde8  2**0
                  CONTENTS, READONLY, DEBUGGING
 10 .debug_line   0000bc47  00000000  00000000  00047411  2**0
                  CONTENTS, READONLY, DEBUGGING
 11 .debug_frame  00001da0  00000000  00000000  00053058  2**2
                  CONTENTS, READONLY, DEBUGGING
 12 .debug_str    00003584  00000000  00000000  00054df8  2**0
                  CONTENTS, READONLY, DEBUGGING
 13 .debug_loc    00012164  00000000  00000000  0005837c  2**0
                  CONTENTS, READONLY, DEBUGGING
 14 .debug_alt_sim_info 00000010  00000000  00000000  0006a4e0  2**2
                  CONTENTS, READONLY, DEBUGGING
 15 .debug_ranges 00000ab0  00000000  00000000  0006a4f0  2**3
                  CONTENTS, READONLY, DEBUGGING
 16 .thread_model 00000003  00000000  00000000  0006e5d2  2**0
                  CONTENTS, READONLY
 17 .cpu          00000004  00000000  00000000  0006e5d5  2**0
                  CONTENTS, READONLY
 18 .qsys         00000001  00000000  00000000  0006e5d9  2**0
                  CONTENTS, READONLY
 19 .simulation_enabled 00000001  00000000  00000000  0006e5da  2**0
                  CONTENTS, READONLY
 20 .stderr_dev   0000000a  00000000  00000000  0006e5db  2**0
                  CONTENTS, READONLY
 21 .stdin_dev    0000000a  00000000  00000000  0006e5e5  2**0
                  CONTENTS, READONLY
 22 .stdout_dev   0000000a  00000000  00000000  0006e5ef  2**0
                  CONTENTS, READONLY
 23 .sopc_system_name 00000004  00000000  00000000  0006e5f9  2**0
                  CONTENTS, READONLY
 24 .quartus_project_dir 00000052  00000000  00000000  0006e5fd  2**0
                  CONTENTS, READONLY
 25 .sopcinfo     001798fe  00000000  00000000  0006e64f  2**0
                  CONTENTS, READONLY
SYMBOL TABLE:
00020000 l    d  .entry	00000000 .entry
00020020 l    d  .exceptions	00000000 .exceptions
000201b8 l    d  .text	00000000 .text
0002e760 l    d  .rodata	00000000 .rodata
0002eb00 l    d  .rwdata	00000000 .rwdata
00032090 l    d  .bss	00000000 .bss
00000000 l    d  .comment	00000000 .comment
00000000 l    d  .debug_aranges	00000000 .debug_aranges
00000000 l    d  .debug_info	00000000 .debug_info
00000000 l    d  .debug_abbrev	00000000 .debug_abbrev
00000000 l    d  .debug_line	00000000 .debug_line
00000000 l    d  .debug_frame	00000000 .debug_frame
00000000 l    d  .debug_str	00000000 .debug_str
00000000 l    d  .debug_loc	00000000 .debug_loc
00000000 l    d  .debug_alt_sim_info	00000000 .debug_alt_sim_info
00000000 l    d  .debug_ranges	00000000 .debug_ranges
00000000 l    df *ABS*	00000000 ../cpu1_bsp//obj/HAL/src/crt0.o
000201f0 l       .text	00000000 alt_after_alt_main
00000000 l    df *ABS*	00000000 alt_exception_entry.o
00020094 l       .exceptions	00000000 alt_exception_unknown
00000000 l    df *ABS*	00000000 alt_irq_handler.c
00000000 l    df *ABS*	00000000 FIFO.c
00000000 l    df *ABS*	00000000 main.c
00000000 l    df *ABS*	00000000 lib2-mul.c
00000000 l    df *ABS*	00000000 fclose.c
00000000 l    df *ABS*	00000000 fflush.c
00000000 l    df *ABS*	00000000 findfp.c
000213a4 l     F .text	00000008 __fp_lock
000213ac l     F .text	00000008 __fp_unlock
00000000 l    df *ABS*	00000000 fopen.c
00000000 l    df *ABS*	00000000 fprintf.c
00000000 l    df *ABS*	00000000 fread.c
00000000 l    df *ABS*	00000000 mallocr.c
00000000 l    df *ABS*	00000000 fseek.c
00000000 l    df *ABS*	00000000 fstatr.c
00000000 l    df *ABS*	00000000 fwalk.c
00000000 l    df *ABS*	00000000 fwrite.c
00000000 l    df *ABS*	00000000 impure.c
0002eb00 l     O .rwdata	00000400 impure_data
00000000 l    df *ABS*	00000000 int_errno.c
00000000 l    df *ABS*	00000000 makebuf.c
00000000 l    df *ABS*	00000000 malloc.c
00000000 l    df *ABS*	00000000 mallocr.c
00000000 l    df *ABS*	00000000 memcpy.c
00000000 l    df *ABS*	00000000 memset.c
00000000 l    df *ABS*	00000000 openr.c
00000000 l    df *ABS*	00000000 printf.c
00000000 l    df *ABS*	00000000 puts.c
00000000 l    df *ABS*	00000000 refill.c
000232dc l     F .text	0000001c lflush
00000000 l    df *ABS*	00000000 sbrkr.c
00000000 l    df *ABS*	00000000 stdio.c
00000000 l    df *ABS*	00000000 strlen.c
00000000 l    df *ABS*	00000000 vfprintf.c
00023714 l     F .text	00000034 __sprint_r
0002e81e l     O .rodata	00000010 blanks.3515
0002e82e l     O .rodata	00000010 zeroes.3516
00000000 l    df *ABS*	00000000 writer.c
00000000 l    df *ABS*	00000000 wsetup.c
00000000 l    df *ABS*	00000000 closer.c
00000000 l    df *ABS*	00000000 dtoa.c
0002582c l     F .text	0000023c quorem
00000000 l    df *ABS*	00000000 flags.c
00000000 l    df *ABS*	00000000 fvwrite.c
00000000 l    df *ABS*	00000000 isattyr.c
00000000 l    df *ABS*	00000000 locale.c
0002e860 l     O .rodata	00000030 lconv
00000000 l    df *ABS*	00000000 lseekr.c
00000000 l    df *ABS*	00000000 memchr.c
00000000 l    df *ABS*	00000000 memmove.c
00000000 l    df *ABS*	00000000 mprec.c
0002e9a8 l     O .rodata	0000000c p05.2435
00000000 l    df *ABS*	00000000 readr.c
00000000 l    df *ABS*	00000000 mallocr.c
00000000 l    df *ABS*	00000000 s_isinfd.c
00000000 l    df *ABS*	00000000 s_isnand.c
00000000 l    df *ABS*	00000000 strcmp.c
00000000 l    df *ABS*	00000000 mallocr.c
00000000 l    df *ABS*	00000000 libgcc2.c
00000000 l    df *ABS*	00000000 libgcc2.c
00000000 l    df *ABS*	00000000 fp-bit.c
00029f34 l     F .text	00000354 _fpadd_parts
00000000 l    df *ABS*	00000000 fp-bit.c
00000000 l    df *ABS*	00000000 fp-bit.c
00000000 l    df *ABS*	00000000 fp-bit.c
00000000 l    df *ABS*	00000000 fp-bit.c
00000000 l    df *ABS*	00000000 fp-bit.c
00000000 l    df *ABS*	00000000 fp-bit.c
00000000 l    df *ABS*	00000000 fp-bit.c
00000000 l    df *ABS*	00000000 fp-bit.c
00000000 l    df *ABS*	00000000 fp-bit.c
00000000 l    df *ABS*	00000000 fp-bit.c
00000000 l    df *ABS*	00000000 fp-bit.c
00000000 l    df *ABS*	00000000 lib2-divmod.c
0002ac74 l     F .text	00000074 udivmodsi4
00000000 l    df *ABS*	00000000 libgcc2.c
00000000 l    df *ABS*	00000000 libgcc2.c
00000000 l    df *ABS*	00000000 libgcc2.c
00000000 l    df *ABS*	00000000 fp-bit.c
00000000 l    df *ABS*	00000000 fp-bit.c
00000000 l    df *ABS*	00000000 fp-bit.c
00000000 l    df *ABS*	00000000 libgcc2.c
00000000 l    df *ABS*	00000000 libgcc2.c
00000000 l    df *ABS*	00000000 alt_close.c
0002b3e0 l     F .text	00000050 alt_get_errno
00000000 l    df *ABS*	00000000 alt_dev.c
0002b4fc l     F .text	0000002c alt_dev_null_write
00000000 l    df *ABS*	00000000 alt_errno.c
00000000 l    df *ABS*	00000000 alt_fstat.c
0002b528 l     F .text	00000050 alt_get_errno
00000000 l    df *ABS*	00000000 alt_isatty.c
0002b628 l     F .text	00000050 alt_get_errno
00000000 l    df *ABS*	00000000 alt_load.c
0002b71c l     F .text	0000006c alt_load_section
00000000 l    df *ABS*	00000000 alt_lseek.c
0002b808 l     F .text	00000050 alt_get_errno
00000000 l    df *ABS*	00000000 alt_main.c
00000000 l    df *ABS*	00000000 alt_malloc_lock.c
00000000 l    df *ABS*	00000000 alt_open.c
0002b9e4 l     F .text	00000050 alt_get_errno
0002ba34 l     F .text	000000f0 alt_file_locked
00000000 l    df *ABS*	00000000 alt_read.c
0002bc7c l     F .text	00000050 alt_get_errno
00000000 l    df *ABS*	00000000 alt_release_fd.c
00000000 l    df *ABS*	00000000 alt_sbrk.c
00030570 l     O .rwdata	00000004 heap_end
00000000 l    df *ABS*	00000000 alt_write.c
0002bef0 l     F .text	00000050 alt_get_errno
00000000 l    df *ABS*	00000000 alt_sys_init.c
0002c030 l     F .text	00000038 alt_dev_reg
0002f4bc l     O .rwdata	00001060 jtag_uart1
0003051c l     O .rwdata	00000028 altera_hostfs
00000000 l    df *ABS*	00000000 altera_avalon_fifo_util.c
00000000 l    df *ABS*	00000000 altera_avalon_jtag_uart_fd.c
00000000 l    df *ABS*	00000000 altera_avalon_jtag_uart_init.c
0002c830 l     F .text	00000204 altera_avalon_jtag_uart_irq
0002ca34 l     F .text	000000a4 altera_avalon_jtag_uart_timeout
00000000 l    df *ABS*	00000000 altera_avalon_jtag_uart_ioctl.c
00000000 l    df *ABS*	00000000 altera_avalon_jtag_uart_read.c
00000000 l    df *ABS*	00000000 altera_avalon_jtag_uart_write.c
00000000 l    df *ABS*	00000000 altera_avalon_timer_sc.c
0002d070 l     F .text	00000074 alt_avalon_timer_sc_irq
00000000 l    df *ABS*	00000000 altera_hostfs.c
000305b0 l     O .rwdata	00000004 hcinfo.2311
000305a4 l     O .rwdata	00000004 hcinfo.2324
00030598 l     O .rwdata	00000004 hcinfo.2333
0003058c l     O .rwdata	00000004 hcinfo.2346
00030580 l     O .rwdata	00000004 hcinfo.2359
00030574 l     O .rwdata	00000004 hcinfo.2385
00000000 l    df *ABS*	00000000 alt_alarm_start.c
00000000 l    df *ABS*	00000000 alt_dcache_flush_all.c
00000000 l    df *ABS*	00000000 alt_dev_llist_insert.c
0002d8f0 l     F .text	00000050 alt_get_errno
00000000 l    df *ABS*	00000000 alt_do_ctors.c
00000000 l    df *ABS*	00000000 alt_do_dtors.c
00000000 l    df *ABS*	00000000 alt_find_dev.c
00000000 l    df *ABS*	00000000 alt_find_file.c
00000000 l    df *ABS*	00000000 alt_fs_reg.c
00000000 l    df *ABS*	00000000 alt_get_fd.c
00000000 l    df *ABS*	00000000 alt_icache_flush_all.c
00000000 l    df *ABS*	00000000 alt_iic.c
00000000 l    df *ABS*	00000000 alt_iic_isr_register.c
00000000 l    df *ABS*	00000000 alt_io_redirect.c
0002e078 l     F .text	000000e0 alt_open_fd
00000000 l    df *ABS*	00000000 alt_irq_vars.c
00000000 l    df *ABS*	00000000 alt_tick.c
00000000 l    df *ABS*	00000000 altera_nios2_qsys_irq.c
00000000 l    df *ABS*	00000000 atexit.c
00000000 l    df *ABS*	00000000 exit.c
00000000 l    df *ABS*	00000000 memcmp.c
00000000 l    df *ABS*	00000000 __atexit.c
00000000 l    df *ABS*	00000000 __call_atexit.c
00000000 l    df *ABS*	00000000 alt_exit.c
00000000 l    df *ABS*	00000000 
0002890c g     F .text	00000074 _mprec_log10
000289fc g     F .text	00000084 __any_on
00027600 g     F .text	00000064 _isatty_r
0002e890 g     O .rodata	00000028 __mprec_tinytens
0002b92c g     F .text	00000078 alt_main
0002b39c g     F .text	00000044 __ashldi3
00023244 g     F .text	00000084 _puts_r
000320ec g     O .bss	00000100 alt_irq
00027740 g     F .text	0000006c _lseek_r
0002c39c g     F .text	00000058 altera_avalon_fifo_write_almostfull
000305c8 g       *ABS*	00000000 __flash_rwdata_start
00027084 g     F .text	00000098 __sflags
0002a7d4 g     F .text	0000005c __eqdf2
0003237c g       *ABS*	00000000 __alt_heap_start
00023208 g     F .text	0000003c printf
00023624 g     F .text	0000005c __sseek
00021448 g     F .text	0000010c __sinit
00027664 g     F .text	0000009c _setlocale_r
000213c0 g     F .text	00000078 __sfmoreglue
0002b9c4 g     F .text	00000020 __malloc_unlock
0002d16c g     F .text	0000016c alt_hostfs_open
000278a4 g     F .text	0000018c memmove
0002c11c g     F .text	00000098 altera_avalon_fifo_init
00021438 g     F .text	00000010 _cleanup
0002c44c g     F .text	00000058 altera_avalon_fifo_write_fifo
00027a30 g     F .text	000000a8 _Balloc
0002a88c g     F .text	00000064 __gtdf2
00000000  w      *UND*	00000000 __errno
00020000 g     F .entry	0000000c __reset
0002c5e4 g     F .text	00000028 altera_avalon_fifo_read_backpressure
00020020 g       *ABS*	00000000 __flash_exceptions_start
00022348 g     F .text	00000068 _fstat_r
00032090 g     O .bss	00000004 errno
000320b0 g     O .bss	00000004 alt_argv
00038544 g       *ABS*	00000000 _gp
0002c2e8 g     F .text	0000005c altera_avalon_fifo_clear_event
0002f33c g     O .rwdata	00000180 alt_fd_list
0002d4b4 g     F .text	000000b8 alt_hostfs_seek
0002da98 g     F .text	00000090 alt_find_dev
00022f54 g     F .text	00000140 memcpy
000213b4 g     F .text	0000000c _cleanup_r
0002a9b0 g     F .text	000000d4 __floatsidf
0002dc3c g     F .text	00000084 alt_fs_reg
0002e158 g     F .text	00000078 alt_io_redirect
0002a954 g     F .text	0000005c __ltdf2
0002e760 g       *ABS*	00000000 __DTOR_END__
000232c8 g     F .text	00000014 puts
00028868 g     F .text	000000a4 __ratio
0002cc34 g     F .text	00000218 altera_avalon_jtag_uart_read
000227a8 g     F .text	00000014 malloc
000231dc g     F .text	0000002c _printf_r
0002ad94 g     F .text	00000008 __udivsi3
0002b678 g     F .text	000000a4 isatty
0002e8e0 g     O .rodata	000000c8 __mprec_tens
00027700 g     F .text	0000000c __locale_charset
0003209c g     O .bss	00000004 __malloc_top_pad
00030554 g     O .rwdata	00000004 __mb_cur_max
0002770c g     F .text	0000000c _localeconv_r
00027e60 g     F .text	0000003c __i2b
0002711c g     F .text	000004e4 __sfvwrite_r
000234e4 g     F .text	00000064 _sbrk_r
000202f8 g     F .text	00000860 read_444_format
0002d344 g     F .text	000000b8 alt_hostfs_read
00028a80 g     F .text	0000006c _read_r
0002f308 g     O .rwdata	0000000c __lc_ctype
00030568 g     O .rwdata	00000004 alt_max_fd
0002b184 g     F .text	00000104 __unpack_d
0002103c g     F .text	0000013c _fclose_r
00021374 g     F .text	00000030 fflush
00032098 g     O .bss	00000004 __malloc_max_sbrked_mem
0002a288 g     F .text	00000054 __adddf3
000285dc g     F .text	00000148 __b2d
0002990c g     F .text	00000628 __umoddi3
0002b858 g     F .text	000000d4 lseek
00030544 g     O .rwdata	00000004 _global_impure_ptr
00028aec g     F .text	000005fc _realloc_r
0003237c g       *ABS*	00000000 __bss_end
0002df88 g     F .text	000000f0 alt_iic_isr_register
0002e268 g     F .text	00000104 alt_tick
000292bc g     F .text	00000650 __udivdi3
0002e8b8 g     O .rodata	00000028 __mprec_bigtens
00027c44 g     F .text	00000104 __s2b
0002ab58 g     F .text	0000011c __floatunsidf
0002837c g     F .text	00000058 __mcmp
00021660 g     F .text	00000018 __fp_lock_all
0002df3c g     F .text	0000004c alt_ic_irq_enabled
000202b8 g     F .text	00000040 FIFO_INIT
0002e1d0 g     F .text	00000098 alt_alarm_stop
000320b8 g     O .bss	00000004 alt_irq_active
0002d2d8 g     F .text	0000006c alt_hostfs_close
000200ec g     F .exceptions	000000cc alt_irq_handler
0002f314 g     O .rwdata	00000028 alt_dev_null
0002d8d4 g     F .text	0000001c alt_dcache_flush_all
00027d48 g     F .text	00000068 __hi0bits
0002aa84 g     F .text	000000d4 __fixdfsi
0002c344 g     F .text	00000058 altera_avalon_fifo_write_ienable
000305c8 g       *ABS*	00000000 __ram_rwdata_end
0002c258 g     F .text	0000002c altera_avalon_fifo_read_almostempty
00030560 g     O .rwdata	00000008 alt_dev_list
0002bf40 g     F .text	000000f0 write
0002eb00 g       *ABS*	00000000 __ram_rodata_end
0002b578 g     F .text	000000b0 fstat
00021804 g     F .text	00000024 fprintf
0002b358 g     F .text	00000044 __lshrdi3
000280f4 g     F .text	0000012c __pow5mult
000320a8 g     O .bss	00000004 __nlocale_changed
0002ad9c g     F .text	00000008 __umodsi3
0003237c g       *ABS*	00000000 end
00022324 g     F .text	00000024 fseek
0002c770 g     F .text	000000c0 altera_avalon_jtag_uart_init
0002c284 g     F .text	0000003c altera_avalon_fifo_read_event
0002e760 g       *ABS*	00000000 __CTOR_LIST__
00040000 g       *ABS*	00000000 __alt_stack_pointer
0002d0e4 g     F .text	00000088 alt_avalon_timer_sc_init
0002aeb4 g     F .text	000000ac __clzsi2
0002ce4c g     F .text	00000224 altera_avalon_jtag_uart_write
00021650 g     F .text	00000004 __sfp_lock_acquire
0002c510 g     F .text	0000004c altera_avalon_fifo_read_fifo
000277ac g     F .text	000000f8 memchr
00023748 g     F .text	00001e7c ___vfprintf_internal_r
00020000 g       *ABS*	00000000 __alt_mem_mem1
00021be0 g     F .text	000002d0 _free_r
0002e584 g     F .text	000001a0 __call_exitprocs
000320a4 g     O .bss	00000004 __mlocale_changed
0003054c g     O .rwdata	00000004 __malloc_sbrk_base
000201b8 g     F .text	0000003c _start
000320bc g     O .bss	00000004 _alt_tick_rate
00020d50 g     F .text	0000028c encode_image
00028220 g     F .text	0000015c __lshift
000320c0 g     O .bss	00000004 _alt_nticks
0002bccc g     F .text	000000f4 read
0002c09c g     F .text	00000080 alt_sys_init
00023170 g     F .text	0000006c _open_r
0002e454 g     F .text	00000130 __register_exitproc
00027e9c g     F .text	00000258 __multiply
0002cad8 g     F .text	00000068 altera_avalon_jtag_uart_close
00021014 g     F .text	00000028 __mulsi3
0002eb00 g       *ABS*	00000000 __ram_rwdata_start
0002e760 g       *ABS*	00000000 __ram_rodata_start
000320c4 g     O .bss	00000028 __malloc_current_mallinfo
00028724 g     F .text	00000144 __d2b
0002c60c g     F .text	00000060 altera_avalon_jtag_uart_read_fd
0002dcc0 g     F .text	000000d4 alt_get_fd
0002b288 g     F .text	000000d0 __fpcmp_parts_d
000257c8 g     F .text	00000064 _close_r
0002e3d8 g     F .text	0000007c memcmp
0002c6cc g     F .text	00000050 altera_avalon_jtag_uart_close_fd
0003237c g       *ABS*	00000000 __alt_stack_base
0002c71c g     F .text	00000054 altera_avalon_jtag_uart_ioctl_fd
00022510 g     F .text	000000b0 _fwrite_r
00025654 g     F .text	00000174 __swsetup_r
0002c1b4 g     F .text	0000003c altera_avalon_fifo_read_status
0002a620 g     F .text	000001b4 __divdf3
00021554 g     F .text	000000fc __sfp
00028980 g     F .text	0000007c __copybits
0002ef00 g     O .rwdata	00000408 __malloc_av_
0002165c g     F .text	00000004 __sinit_lock_release
0002a33c g     F .text	000002e4 __muldf3
00023548 g     F .text	00000054 __sread
00021a64 g     F .text	00000040 fread
0002c5b8 g     F .text	0000002c altera_avalon_fifo_read_other_info
0002db28 g     F .text	00000114 alt_find_file
0002d940 g     F .text	000000a0 alt_dev_llist_insert
0002b9a4 g     F .text	00000020 __malloc_lock
000217dc g     F .text	00000028 _fprintf_r
0002be40 g     F .text	000000b0 sbrk
0002118c g     F .text	000001e8 _fflush_r
000291f0 g     F .text	000000cc _calloc_r
000217c0 g     F .text	0000001c fopen
00032090 g       *ABS*	00000000 __bss_start
00023094 g     F .text	000000dc memset
00020fdc g     F .text	00000038 main
000320b4 g     O .bss	00000004 alt_envp
00032094 g     O .bss	00000004 __malloc_max_total_mem
0002c66c g     F .text	00000060 altera_avalon_jtag_uart_write_fd
0002c2c0 g     F .text	00000028 altera_avalon_fifo_read_level
00021828 g     F .text	0000023c _fread_r
00023680 g     F .text	00000008 __sclose
00040000 g       *ABS*	00000000 __alt_heap_limit
00021178 g     F .text	00000014 fclose
000321ec g     O .bss	00000190 _atexit0
00025a68 g     F .text	0000161c _dtoa_r
000227d0 g     F .text	00000784 _malloc_r
0003056c g     O .rwdata	00000004 alt_errno
000223b0 g     F .text	000000a8 _fwalk
0002ace8 g     F .text	00000050 __divsi3
0002e9b4 g     O .rodata	00000014 __thenan_df
00021aa4 g     F .text	0000013c _malloc_trim_r
0002e760 g       *ABS*	00000000 __CTOR_END__
0002914c g     F .text	000000a4 strcmp
0002e760 g       *ABS*	00000000 __flash_rodata_start
0002e760 g       *ABS*	00000000 __DTOR_LIST__
0002a830 g     F .text	0000005c __nedf2
0002c068 g     F .text	00000034 alt_irq_init
0002bdc0 g     F .text	00000080 alt_release_fd
0002e9c8 g     O .rodata	00000100 __clz_tab
000320a0 g     O .bss	00000004 _PathLocale
0002e38c g     F .text	00000014 atexit
000255e8 g     F .text	0000006c _write_r
00027718 g     F .text	0000001c setlocale
00030548 g     O .rwdata	00000004 _impure_ptr
000320ac g     O .bss	00000004 alt_argc
0002da3c g     F .text	0000005c _do_dtors
00021eb0 g     F .text	00000474 _fseek_r
00020258 g     F .text	00000060 READ_FIFO
000232f8 g     F .text	000001ec __srefill_r
00020020 g       .exceptions	00000000 alt_irq_entry
0002857c g     F .text	00000060 __ulp
000290e8 g     F .text	00000038 __isinfd
00021678 g     F .text	00000018 __fp_unlock_all
00030558 g     O .rwdata	00000008 alt_fs_list
0002d3fc g     F .text	000000b8 alt_hostfs_write
00020020 g       *ABS*	00000000 __ram_exceptions_start
00027734 g     F .text	0000000c localeconv
0002c55c g     F .text	0000005c altera_avalon_fifo_write_other_info
0002ddb0 g     F .text	00000050 alt_ic_isr_register
000225c0 g     F .text	00000040 fwrite
000305c8 g       *ABS*	00000000 _edata
0003237c g       *ABS*	00000000 _end
000201b8 g       *ABS*	00000000 __ram_exceptions_end
0002cb40 g     F .text	000000f4 altera_avalon_jtag_uart_ioctl
0002de9c g     F .text	000000a0 alt_ic_irq_disable
0002359c g     F .text	00000088 __swrite
00030550 g     O .rwdata	00000004 __malloc_trim_threshold
0002e36c g     F .text	00000020 altera_nios2_qsys_irq_init
0002e3a0 g     F .text	00000038 exit
00022458 g     F .text	000000b8 _fwalk_reent
000283d4 g     F .text	000001a8 __mdiff
0002ad38 g     F .text	0000005c __modsi3
0002c1f0 g     F .text	0000003c altera_avalon_fifo_read_ienable
00040000 g       *ABS*	00000000 __alt_data_end
00020020 g     F .exceptions	00000000 alt_exception
00021654 g     F .text	00000004 __sfp_lock_release
00021690 g     F .text	00000130 _fopen_r
0002e724 g     F .text	0000003c _exit
00029120 g     F .text	0000002c __isnand
0002d794 g     F .text	00000140 alt_alarm_start
0002ada4 g     F .text	00000110 __muldi3
0002c22c g     F .text	0000002c altera_avalon_fifo_read_almostfull
00022600 g     F .text	000001a8 __smakebuf_r
00023688 g     F .text	0000008c strlen
0002bb24 g     F .text	00000158 open
0002c4a4 g     F .text	0000006c altera_avalon_read_fifo
0002a8f0 g     F .text	00000064 __gedf2
00020b58 g     F .text	000001f8 initialization
0002dd94 g     F .text	0000001c alt_icache_flush_all
000201f4 g     F .text	00000064 WRITE_FIFO
000305bc g     O .rwdata	00000004 alt_priority_mask
0002de00 g     F .text	0000009c alt_ic_irq_enable
000255c4 g     F .text	00000024 __vfprintf_internal
0002a2dc g     F .text	00000060 __subdf3
00027db0 g     F .text	000000b0 __lo0bits
0002c3f4 g     F .text	00000058 altera_avalon_fifo_write_almostempty
000305c0 g     O .rwdata	00000008 alt_alarm_list
0002d9e0 g     F .text	0000005c _do_ctors
0002b430 g     F .text	000000cc close
0002b788 g     F .text	00000080 alt_load
0002af60 g     F .text	00000224 __pack_d
000227bc g     F .text	00000014 free
00021658 g     F .text	00000004 __sinit_lock_acquire
00027b00 g     F .text	00000144 __multadd
00027ad8 g     F .text	00000028 _Bfree
0002d56c g     F .text	00000228 alt_hostfs_fstat



Disassembly of section .entry:

00020000 <__reset>:
 * Jump to the _start entry point in the .text section if reset code
 * is allowed or if optimizing for RTL simulation.
 */
#if defined(ALT_ALLOW_CODE_AT_RESET) || defined(ALT_SIM_OPTIMIZE)
    /* Jump to the _start entry point in the .text section. */
    movhi r1, %hi(_start)
   20000:	004000b4 	movhi	at,2
    ori r1, r1, %lo(_start)
   20004:	08406e14 	ori	at,at,440
    jmp r1
   20008:	0800683a 	jmp	at
	...

Disassembly of section .exceptions:

00020020 <alt_exception>:

#else /* ALT_EXCEPTION_STACK disabled */
        /* 
         * Reserve space on normal stack for registers about to be pushed.
         */
        addi  sp, sp, -76
   20020:	deffed04 	addi	sp,sp,-76
         * documentation for details).
         *
         * Leave a gap in the stack frame at 4(sp) for the muldiv handler to
         * store zero into.
         */
        stw   ra,  0(sp)
   20024:	dfc00015 	stw	ra,0(sp)
        stw   r1,   8(sp)
   20028:	d8400215 	stw	at,8(sp)
        stw   r2,  12(sp)
   2002c:	d8800315 	stw	r2,12(sp)
        stw   r3,  16(sp)
   20030:	d8c00415 	stw	r3,16(sp)
        stw   r4,  20(sp)
   20034:	d9000515 	stw	r4,20(sp)
        stw   r5,  24(sp)
   20038:	d9400615 	stw	r5,24(sp)
        stw   r6,  28(sp)
   2003c:	d9800715 	stw	r6,28(sp)
        stw   r7,  32(sp)
   20040:	d9c00815 	stw	r7,32(sp)
        rdctl r5, estatus   /* Read early to avoid usage stall */
   20044:	000b307a 	rdctl	r5,estatus
        stw   r8,  36(sp)
   20048:	da000915 	stw	r8,36(sp)
        stw   r9,  40(sp)
   2004c:	da400a15 	stw	r9,40(sp)
        stw   r10, 44(sp)
   20050:	da800b15 	stw	r10,44(sp)
        stw   r11, 48(sp)
   20054:	dac00c15 	stw	r11,48(sp)
        stw   r12, 52(sp)
   20058:	db000d15 	stw	r12,52(sp)
        stw   r13, 56(sp)
   2005c:	db400e15 	stw	r13,56(sp)
        stw   r14, 60(sp)
   20060:	db800f15 	stw	r14,60(sp)
        stw   r15, 64(sp)
   20064:	dbc01015 	stw	r15,64(sp)
        /*
         * ea-4 contains the address of the instruction being executed
         * when the exception occured. For interrupt exceptions, we will
         * will be re-issue the isntruction. Store it in 72(sp)
         */
        stw   r5,  68(sp)  /* estatus */
   20068:	d9401115 	stw	r5,68(sp)
        addi  r15, ea, -4  /* instruction that caused exception */
   2006c:	ebffff04 	addi	r15,ea,-4
        stw   r15,  72(sp)
   20070:	dbc01215 	stw	r15,72(sp)
#else
        /*
         * Test to see if the exception was a software exception or caused 
         * by an external interrupt, and vector accordingly.
         */
        rdctl r4, ipending
   20074:	0009313a 	rdctl	r4,ipending
        andi  r2, r5, 1
   20078:	2880004c 	andi	r2,r5,1
        beq   r2, zero, .Lnot_irq
   2007c:	10000326 	beq	r2,zero,2008c <alt_exception+0x6c>
        beq   r4, zero, .Lnot_irq
   20080:	20000226 	beq	r4,zero,2008c <alt_exception+0x6c>
        /*
         * Now that all necessary registers have been preserved, call 
         * alt_irq_handler() to process the interrupts.
         */

        call alt_irq_handler
   20084:	00200ec0 	call	200ec <alt_irq_handler>

        .section .exceptions.irqreturn, "xa"

        br    .Lexception_exit
   20088:	00000306 	br	20098 <alt_exception_unknown+0x4>
         * upon completion, so we write ea (address of instruction *after*
         * the one where the exception occured) into 72(sp). The actual
         * instruction that caused the exception is written in r2, which these
         * handlers will utilize.
         */
        stw   ea,  72(sp)  /* Don't re-issue */
   2008c:	df401215 	stw	ea,72(sp)
        ldw   r2, -4(ea)   /* Instruction that caused exception */
   20090:	e8bfff17 	ldw	r2,-4(ea)

00020094 <alt_exception_unknown>:
#ifdef NIOS2_HAS_DEBUG_STUB
       /*
        *  Either tell the user now (if there is a debugger attached) or go into
        *  the debug monitor which will loop until a debugger is attached.
        */
        break
   20094:	003da03a 	break	0
        /* 
         * Restore the saved registers, so that all general purpose registers 
         * have been restored to their state at the time the interrupt occured.
         */

        ldw   r5,  68(sp)
   20098:	d9401117 	ldw	r5,68(sp)
        ldw   ea,  72(sp)  /* This becomes the PC once eret is executed */
   2009c:	df401217 	ldw	ea,72(sp)
        ldw   ra,   0(sp)
   200a0:	dfc00017 	ldw	ra,0(sp)

        wrctl estatus, r5
   200a4:	2801707a 	wrctl	estatus,r5

        ldw   r1,   8(sp)
   200a8:	d8400217 	ldw	at,8(sp)
        ldw   r2,  12(sp)
   200ac:	d8800317 	ldw	r2,12(sp)
        ldw   r3,  16(sp)
   200b0:	d8c00417 	ldw	r3,16(sp)
        ldw   r4,  20(sp)
   200b4:	d9000517 	ldw	r4,20(sp)
        ldw   r5,  24(sp)
   200b8:	d9400617 	ldw	r5,24(sp)
        ldw   r6,  28(sp)
   200bc:	d9800717 	ldw	r6,28(sp)
        ldw   r7,  32(sp)
   200c0:	d9c00817 	ldw	r7,32(sp)

#if defined(ALT_EXCEPTION_STACK) && defined(ALT_STACK_CHECK)
        ldw   et, %gprel(alt_exception_old_stack_limit)(gp)
#endif

        ldw   r8,  36(sp)
   200c4:	da000917 	ldw	r8,36(sp)
        ldw   r9,  40(sp)
   200c8:	da400a17 	ldw	r9,40(sp)
        ldw   r10, 44(sp)
   200cc:	da800b17 	ldw	r10,44(sp)
        ldw   r11, 48(sp)
   200d0:	dac00c17 	ldw	r11,48(sp)
        ldw   r12, 52(sp)
   200d4:	db000d17 	ldw	r12,52(sp)
        ldw   r13, 56(sp)
   200d8:	db400e17 	ldw	r13,56(sp)
        ldw   r14, 60(sp)
   200dc:	db800f17 	ldw	r14,60(sp)
        ldw   r15, 64(sp)
   200e0:	dbc01017 	ldw	r15,64(sp)
        stw   et, %gprel(alt_stack_limit_value)(gp)
        stw   zero, %gprel(alt_exception_old_stack_limit)(gp)
#endif /* ALT_STACK_CHECK */
        ldw   sp,  76(sp)
#else /* ALT_EXCEPTION_STACK disabled */
        addi  sp, sp, 76
   200e4:	dec01304 	addi	sp,sp,76

        /*
         * Return to the interrupted instruction.
         */

        eret
   200e8:	ef80083a 	eret

000200ec <alt_irq_handler>:
 * instruction is present if the macro ALT_CI_INTERRUPT_VECTOR defined.
 */

void alt_irq_handler (void) __attribute__ ((section (".exceptions")));
void alt_irq_handler (void)
{
   200ec:	defff904 	addi	sp,sp,-28
   200f0:	dfc00615 	stw	ra,24(sp)
   200f4:	df000515 	stw	fp,20(sp)
   200f8:	df000504 	addi	fp,sp,20
  
  /*
   * Notify the operating system that we are at interrupt level.
   */ 
  
  ALT_OS_INT_ENTER();
   200fc:	0001883a 	nop
#ifndef NIOS2_EIC_PRESENT
static ALT_INLINE alt_u32 ALT_ALWAYS_INLINE alt_irq_pending (void)
{
  alt_u32 active;

  NIOS2_READ_IPENDING (active);
   20100:	0005313a 	rdctl	r2,ipending
   20104:	e0bffe15 	stw	r2,-8(fp)

  return active;
   20108:	e0bffe17 	ldw	r2,-8(fp)
   * Consider the case where the high priority interupt is asserted during
   * the interrupt entry sequence for a lower priority interrupt to see why
   * this is the case.
   */

  active = alt_irq_pending ();
   2010c:	e0bffb15 	stw	r2,-20(fp)

  do
  {
    i = 0;
   20110:	e03ffd15 	stw	zero,-12(fp)
    mask = 1;
   20114:	00800044 	movi	r2,1
   20118:	e0bffc15 	stw	r2,-16(fp)
     * called to clear the interrupt condition.
     */

    do
    {
      if (active & mask)
   2011c:	e0fffb17 	ldw	r3,-20(fp)
   20120:	e0bffc17 	ldw	r2,-16(fp)
   20124:	1884703a 	and	r2,r3,r2
   20128:	10001726 	beq	r2,zero,20188 <alt_irq_handler+0x9c>
      { 
#ifdef ALT_ENHANCED_INTERRUPT_API_PRESENT
        alt_irq[i].handler(alt_irq[i].context); 
   2012c:	00c000f4 	movhi	r3,3
   20130:	18c83b04 	addi	r3,r3,8428
   20134:	e0bffd17 	ldw	r2,-12(fp)
   20138:	100490fa 	slli	r2,r2,3
   2013c:	1885883a 	add	r2,r3,r2
   20140:	10c00017 	ldw	r3,0(r2)
   20144:	010000f4 	movhi	r4,3
   20148:	21083b04 	addi	r4,r4,8428
   2014c:	e0bffd17 	ldw	r2,-12(fp)
   20150:	100490fa 	slli	r2,r2,3
   20154:	2085883a 	add	r2,r4,r2
   20158:	10800104 	addi	r2,r2,4
   2015c:	10800017 	ldw	r2,0(r2)
   20160:	1009883a 	mov	r4,r2
   20164:	183ee83a 	callr	r3
#else
        alt_irq[i].handler(alt_irq[i].context, i); 
#endif
        break;
   20168:	0001883a 	nop
#ifndef NIOS2_EIC_PRESENT
static ALT_INLINE alt_u32 ALT_ALWAYS_INLINE alt_irq_pending (void)
{
  alt_u32 active;

  NIOS2_READ_IPENDING (active);
   2016c:	0005313a 	rdctl	r2,ipending
   20170:	e0bfff15 	stw	r2,-4(fp)

  return active;
   20174:	e0bfff17 	ldw	r2,-4(fp)
      mask <<= 1;
      i++;

    } while (1);

    active = alt_irq_pending ();
   20178:	e0bffb15 	stw	r2,-20(fp)
    
  } while (active);
   2017c:	e0bffb17 	ldw	r2,-20(fp)
   20180:	103fe31e 	bne	r2,zero,20110 <alt_irq_handler+0x24>

  /*
   * Notify the operating system that interrupt processing is complete.
   */ 

  ALT_OS_INT_EXIT();
   20184:	00000706 	br	201a4 <alt_irq_handler+0xb8>
#else
        alt_irq[i].handler(alt_irq[i].context, i); 
#endif
        break;
      }
      mask <<= 1;
   20188:	e0bffc17 	ldw	r2,-16(fp)
   2018c:	1085883a 	add	r2,r2,r2
   20190:	e0bffc15 	stw	r2,-16(fp)
      i++;
   20194:	e0bffd17 	ldw	r2,-12(fp)
   20198:	10800044 	addi	r2,r2,1
   2019c:	e0bffd15 	stw	r2,-12(fp)

    } while (1);
   201a0:	003fde06 	br	2011c <alt_irq_handler+0x30>
  /*
   * Notify the operating system that interrupt processing is complete.
   */ 

  ALT_OS_INT_EXIT();
}
   201a4:	e037883a 	mov	sp,fp
   201a8:	dfc00117 	ldw	ra,4(sp)
   201ac:	df000017 	ldw	fp,0(sp)
   201b0:	dec00204 	addi	sp,sp,8
   201b4:	f800283a 	ret

Disassembly of section .text:

000201b8 <_start>:

    /*
     * Now that the caches are initialized, set up the stack pointer and global pointer.
     * The values provided by the linker are assumed to be correctly aligned.
     */
    movhi sp, %hi(__alt_stack_pointer)
   201b8:	06c00134 	movhi	sp,4
    ori sp, sp, %lo(__alt_stack_pointer)
   201bc:	dec00014 	ori	sp,sp,0
    movhi gp, %hi(_gp)
   201c0:	068000f4 	movhi	gp,3
    ori gp, gp, %lo(_gp)
   201c4:	d6a15114 	ori	gp,gp,34116
 */
#ifndef ALT_SIM_OPTIMIZE
    /* Log that the BSS is about to be cleared. */
    ALT_LOG_PUTS(alt_log_msg_bss)

    movhi r2, %hi(__bss_start)
   201c8:	008000f4 	movhi	r2,3
    ori r2, r2, %lo(__bss_start)
   201cc:	10882414 	ori	r2,r2,8336

    movhi r3, %hi(__bss_end)
   201d0:	00c000f4 	movhi	r3,3
    ori r3, r3, %lo(__bss_end)
   201d4:	18c8df14 	ori	r3,r3,9084

    beq r2, r3, 1f
   201d8:	10c00326 	beq	r2,r3,201e8 <_start+0x30>

0:
    stw zero, (r2)
   201dc:	10000015 	stw	zero,0(r2)
    addi r2, r2, 4
   201e0:	10800104 	addi	r2,r2,4
    bltu r2, r3, 0b
   201e4:	10fffd36 	bltu	r2,r3,201dc <_start+0x24>
     * section aren't defined until alt_load() has been called).
     */
    mov   et, zero
#endif

    call alt_load
   201e8:	002b7880 	call	2b788 <alt_load>

    /* Log that alt_main is about to be called. */
    ALT_LOG_PUTS(alt_log_msg_alt_main)

    /* Call the C entry point. It should never return. */
    call alt_main
   201ec:	002b92c0 	call	2b92c <alt_main>

000201f0 <alt_after_alt_main>:

    /* Wait in infinite loop in case alt_main does return. */
alt_after_alt_main:
    br alt_after_alt_main
   201f0:	003fff06 	br	201f0 <alt_after_alt_main>

000201f4 <WRITE_FIFO>:
 */

#include "FIFO.h"

void WRITE_FIFO(int *buffer, int inBase, int controllBase)
{
   201f4:	defffb04 	addi	sp,sp,-20
   201f8:	dfc00415 	stw	ra,16(sp)
   201fc:	df000315 	stw	fp,12(sp)
   20200:	df000304 	addi	fp,sp,12
   20204:	e13ffd15 	stw	r4,-12(fp)
   20208:	e17ffe15 	stw	r5,-8(fp)
   2020c:	e1bfff15 	stw	r6,-4(fp)

	// Check if FIFO is full before writing
	while (altera_avalon_fifo_read_level(controllBase) == ALMOST_FULL)
   20210:	0001883a 	nop
   20214:	e0bfff17 	ldw	r2,-4(fp)
   20218:	1009883a 	mov	r4,r2
   2021c:	002c2c00 	call	2c2c0 <altera_avalon_fifo_read_level>
   20220:	10800220 	cmpeqi	r2,r2,8
   20224:	103ffb1e 	bne	r2,zero,20214 <WRITE_FIFO+0x20>
	{
	}

	// Write data to FIFO
	altera_avalon_fifo_write_fifo(inBase, controllBase, *buffer);
   20228:	e13ffe17 	ldw	r4,-8(fp)
   2022c:	e0ffff17 	ldw	r3,-4(fp)
   20230:	e0bffd17 	ldw	r2,-12(fp)
   20234:	10800017 	ldw	r2,0(r2)
   20238:	180b883a 	mov	r5,r3
   2023c:	100d883a 	mov	r6,r2
   20240:	002c44c0 	call	2c44c <altera_avalon_fifo_write_fifo>
}
   20244:	e037883a 	mov	sp,fp
   20248:	dfc00117 	ldw	ra,4(sp)
   2024c:	df000017 	ldw	fp,0(sp)
   20250:	dec00204 	addi	sp,sp,8
   20254:	f800283a 	ret

00020258 <READ_FIFO>:

void READ_FIFO(int *buffer, int outBase, int controllBase)
{
   20258:	defffb04 	addi	sp,sp,-20
   2025c:	dfc00415 	stw	ra,16(sp)
   20260:	df000315 	stw	fp,12(sp)
   20264:	df000304 	addi	fp,sp,12
   20268:	e13ffd15 	stw	r4,-12(fp)
   2026c:	e17ffe15 	stw	r5,-8(fp)
   20270:	e1bfff15 	stw	r6,-4(fp)
	// Wait if the FIFO is empty
	// while (altera_avalon_fifo_read_status(FIFO_MEM_IN_CSR_BASE, ALTERA_AVALON_FIFO_STATUS_EMPTY))
	// 	;

	while (altera_avalon_fifo_read_level(controllBase) == ALMOST_EMTY)
   20274:	0001883a 	nop
   20278:	e0bfff17 	ldw	r2,-4(fp)
   2027c:	1009883a 	mov	r4,r2
   20280:	002c2c00 	call	2c2c0 <altera_avalon_fifo_read_level>
   20284:	103ffc26 	beq	r2,zero,20278 <READ_FIFO+0x20>
	{
	}

	// Read the data
	*buffer = altera_avalon_fifo_read_fifo(outBase, controllBase);
   20288:	e0fffe17 	ldw	r3,-8(fp)
   2028c:	e0bfff17 	ldw	r2,-4(fp)
   20290:	1809883a 	mov	r4,r3
   20294:	100b883a 	mov	r5,r2
   20298:	002c5100 	call	2c510 <altera_avalon_fifo_read_fifo>
   2029c:	e0fffd17 	ldw	r3,-12(fp)
   202a0:	18800015 	stw	r2,0(r3)
}
   202a4:	e037883a 	mov	sp,fp
   202a8:	dfc00117 	ldw	ra,4(sp)
   202ac:	df000017 	ldw	fp,0(sp)
   202b0:	dec00204 	addi	sp,sp,8
   202b4:	f800283a 	ret

000202b8 <FIFO_INIT>:

// Initialization
void FIFO_INIT(int controllBase)
{
   202b8:	defffd04 	addi	sp,sp,-12
   202bc:	dfc00215 	stw	ra,8(sp)
   202c0:	df000115 	stw	fp,4(sp)
   202c4:	df000104 	addi	fp,sp,4
   202c8:	e13fff15 	stw	r4,-4(fp)
	altera_avalon_fifo_init(controllBase,
   202cc:	e0bfff17 	ldw	r2,-4(fp)
   202d0:	1009883a 	mov	r4,r2
   202d4:	000b883a 	mov	r5,zero
   202d8:	000d883a 	mov	r6,zero
   202dc:	01c00204 	movi	r7,8
   202e0:	002c11c0 	call	2c11c <altera_avalon_fifo_init>
							0,
							ALMOST_EMTY,  // Almost empty threshold
							ALMOST_FULL); // Almost full threshold
   202e4:	e037883a 	mov	sp,fp
   202e8:	dfc00117 	ldw	ra,4(sp)
   202ec:	df000017 	ldw	fp,0(sp)
   202f0:	dec00204 	addi	sp,sp,8
   202f4:	f800283a 	ret

000202f8 <read_444_format>:

#ifndef READYUV_H
#define READYUV_H

void read_444_format(JPEG_ENCODER_STRUCTURE *jpeg_encoder_structure, UINT8 *input_ptr)
{
   202f8:	defff304 	addi	sp,sp,-52
   202fc:	dfc00c15 	stw	ra,48(sp)
   20300:	df000b15 	stw	fp,44(sp)
   20304:	dc000a15 	stw	r16,40(sp)
   20308:	df000a04 	addi	fp,sp,40
   2030c:	e13ffe15 	stw	r4,-8(fp)
   20310:	e17fff15 	stw	r5,-4(fp)
	INT32 i, j;

	UINT8 R, G, B;
	INT32 Y, Cb, Cr;

	UINT16 rows = jpeg_encoder_structure->rows;
   20314:	e0bffe17 	ldw	r2,-8(fp)
   20318:	1080030b 	ldhu	r2,12(r2)
   2031c:	e0bff80d 	sth	r2,-32(fp)
	UINT16 cols = jpeg_encoder_structure->cols;
   20320:	e0bffe17 	ldw	r2,-8(fp)
   20324:	1080038b 	ldhu	r2,14(r2)
   20328:	e0bff88d 	sth	r2,-30(fp)
	UINT16 incr = jpeg_encoder_structure->incr;
   2032c:	e0bffe17 	ldw	r2,-8(fp)
   20330:	1080050b 	ldhu	r2,20(r2)
   20334:	e0bff90d 	sth	r2,-28(fp)

	for (i = rows; i > 0; i--)
   20338:	e0bff80b 	ldhu	r2,-32(fp)
   2033c:	e0bff615 	stw	r2,-40(fp)
   20340:	0000f606 	br	2071c <read_444_format+0x424>
	{
		for (j = cols; j > 0; j--)
   20344:	e0bff88b 	ldhu	r2,-30(fp)
   20348:	e0bff715 	stw	r2,-36(fp)
   2034c:	00007506 	br	20524 <read_444_format+0x22c>
		{
			R = *input_ptr++;
   20350:	e0bfff17 	ldw	r2,-4(fp)
   20354:	10800003 	ldbu	r2,0(r2)
   20358:	e0bff985 	stb	r2,-26(fp)
   2035c:	e0bfff17 	ldw	r2,-4(fp)
   20360:	10800044 	addi	r2,r2,1
   20364:	e0bfff15 	stw	r2,-4(fp)
			G = *input_ptr++;
   20368:	e0bfff17 	ldw	r2,-4(fp)
   2036c:	10800003 	ldbu	r2,0(r2)
   20370:	e0bff9c5 	stb	r2,-25(fp)
   20374:	e0bfff17 	ldw	r2,-4(fp)
   20378:	10800044 	addi	r2,r2,1
   2037c:	e0bfff15 	stw	r2,-4(fp)
			B = *input_ptr++;
   20380:	e0bfff17 	ldw	r2,-4(fp)
   20384:	10800003 	ldbu	r2,0(r2)
   20388:	e0bffa05 	stb	r2,-24(fp)
   2038c:	e0bfff17 	ldw	r2,-4(fp)
   20390:	10800044 	addi	r2,r2,1
   20394:	e0bfff15 	stw	r2,-4(fp)

			Y = ((77 * R + 150 * G + 29 * B) >> 8);
   20398:	e0bff983 	ldbu	r2,-26(fp)
   2039c:	1009883a 	mov	r4,r2
   203a0:	01401344 	movi	r5,77
   203a4:	00210140 	call	21014 <__mulsi3>
   203a8:	1021883a 	mov	r16,r2
   203ac:	e0bff9c3 	ldbu	r2,-25(fp)
   203b0:	1009883a 	mov	r4,r2
   203b4:	01402584 	movi	r5,150
   203b8:	00210140 	call	21014 <__mulsi3>
   203bc:	80a1883a 	add	r16,r16,r2
   203c0:	e0bffa03 	ldbu	r2,-24(fp)
   203c4:	1009883a 	mov	r4,r2
   203c8:	01400744 	movi	r5,29
   203cc:	00210140 	call	21014 <__mulsi3>
   203d0:	8085883a 	add	r2,r16,r2
   203d4:	1005d23a 	srai	r2,r2,8
   203d8:	e0bffb15 	stw	r2,-20(fp)
			Cb = ((-43 * R - 85 * G + 128 * B) >> 8) + 128;
   203dc:	e0bff983 	ldbu	r2,-26(fp)
   203e0:	1009883a 	mov	r4,r2
   203e4:	017ff544 	movi	r5,-43
   203e8:	00210140 	call	21014 <__mulsi3>
   203ec:	1021883a 	mov	r16,r2
   203f0:	e0bff9c3 	ldbu	r2,-25(fp)
   203f4:	1009883a 	mov	r4,r2
   203f8:	017feac4 	movi	r5,-85
   203fc:	00210140 	call	21014 <__mulsi3>
   20400:	8087883a 	add	r3,r16,r2
   20404:	e0bffa03 	ldbu	r2,-24(fp)
   20408:	100491fa 	slli	r2,r2,7
   2040c:	1885883a 	add	r2,r3,r2
   20410:	1005d23a 	srai	r2,r2,8
   20414:	10802004 	addi	r2,r2,128
   20418:	e0bffc15 	stw	r2,-16(fp)
			Cr = ((128 * R - 107 * G - 21 * B) >> 8) + 128;
   2041c:	e0bff983 	ldbu	r2,-26(fp)
   20420:	102091fa 	slli	r16,r2,7
   20424:	e0bff9c3 	ldbu	r2,-25(fp)
   20428:	1009883a 	mov	r4,r2
   2042c:	017fe544 	movi	r5,-107
   20430:	00210140 	call	21014 <__mulsi3>
   20434:	80a1883a 	add	r16,r16,r2
   20438:	e0bffa03 	ldbu	r2,-24(fp)
   2043c:	1009883a 	mov	r4,r2
   20440:	017ffac4 	movi	r5,-21
   20444:	00210140 	call	21014 <__mulsi3>
   20448:	8085883a 	add	r2,r16,r2
   2044c:	1005d23a 	srai	r2,r2,8
   20450:	10802004 	addi	r2,r2,128
   20454:	e0bffd15 	stw	r2,-12(fp)

			if (Y < 0)
   20458:	e0bffb17 	ldw	r2,-20(fp)
   2045c:	1000020e 	bge	r2,zero,20468 <read_444_format+0x170>
				Y = 0;
   20460:	e03ffb15 	stw	zero,-20(fp)
   20464:	00000506 	br	2047c <read_444_format+0x184>
			else if (Y > 255)
   20468:	e0bffb17 	ldw	r2,-20(fp)
   2046c:	10804010 	cmplti	r2,r2,256
   20470:	1000021e 	bne	r2,zero,2047c <read_444_format+0x184>
				Y = 255;
   20474:	00803fc4 	movi	r2,255
   20478:	e0bffb15 	stw	r2,-20(fp)

			if (Cb < 0)
   2047c:	e0bffc17 	ldw	r2,-16(fp)
   20480:	1000020e 	bge	r2,zero,2048c <read_444_format+0x194>
				Cb = 0;
   20484:	e03ffc15 	stw	zero,-16(fp)
   20488:	00000506 	br	204a0 <read_444_format+0x1a8>
			else if (Cb > 255)
   2048c:	e0bffc17 	ldw	r2,-16(fp)
   20490:	10804010 	cmplti	r2,r2,256
   20494:	1000021e 	bne	r2,zero,204a0 <read_444_format+0x1a8>
				Cb = 255;
   20498:	00803fc4 	movi	r2,255
   2049c:	e0bffc15 	stw	r2,-16(fp)

			if (Cr < 0)
   204a0:	e0bffd17 	ldw	r2,-12(fp)
   204a4:	1000020e 	bge	r2,zero,204b0 <read_444_format+0x1b8>
				Cr = 0;
   204a8:	e03ffd15 	stw	zero,-12(fp)
   204ac:	00000506 	br	204c4 <read_444_format+0x1cc>
			else if (Cr > 255)
   204b0:	e0bffd17 	ldw	r2,-12(fp)
   204b4:	10804010 	cmplti	r2,r2,256
   204b8:	1000021e 	bne	r2,zero,204c4 <read_444_format+0x1cc>
				Cr = 255;
   204bc:	00803fc4 	movi	r2,255
   204c0:	e0bffd15 	stw	r2,-12(fp)

			// send into fifo
			WRITE_FIFO(&Y, IN_BASE_1to2A, CONTROL_BASE_1to2A);
   204c4:	e0bffb04 	addi	r2,fp,-20
   204c8:	1009883a 	mov	r4,r2
   204cc:	01400134 	movhi	r5,4
   204d0:	29443fc4 	addi	r5,r5,4351
   204d4:	01800134 	movhi	r6,4
   204d8:	31806804 	addi	r6,r6,416
   204dc:	00201f40 	call	201f4 <WRITE_FIFO>
			WRITE_FIFO(&Cb, IN_BASE_1to2B, CONTROL_BASE_1to2B);
   204e0:	e0bffc04 	addi	r2,fp,-16
   204e4:	1009883a 	mov	r4,r2
   204e8:	01400134 	movhi	r5,4
   204ec:	29443e04 	addi	r5,r5,4344
   204f0:	01800134 	movhi	r6,4
   204f4:	31842004 	addi	r6,r6,4224
   204f8:	00201f40 	call	201f4 <WRITE_FIFO>
			WRITE_FIFO(&Cr, IN_BASE_1to2C, CONTROL_BASE_1to2C);
   204fc:	e0bffd04 	addi	r2,fp,-12
   20500:	1009883a 	mov	r4,r2
   20504:	01400134 	movhi	r5,4
   20508:	29443d04 	addi	r5,r5,4340
   2050c:	01800134 	movhi	r6,4
   20510:	31841804 	addi	r6,r6,4192
   20514:	00201f40 	call	201f4 <WRITE_FIFO>
	UINT16 cols = jpeg_encoder_structure->cols;
	UINT16 incr = jpeg_encoder_structure->incr;

	for (i = rows; i > 0; i--)
	{
		for (j = cols; j > 0; j--)
   20518:	e0bff717 	ldw	r2,-36(fp)
   2051c:	10bfffc4 	addi	r2,r2,-1
   20520:	e0bff715 	stw	r2,-36(fp)
   20524:	e0bff717 	ldw	r2,-36(fp)
   20528:	00bf8916 	blt	zero,r2,20350 <read_444_format+0x58>
			WRITE_FIFO(&Y, IN_BASE_1to2A, CONTROL_BASE_1to2A);
			WRITE_FIFO(&Cb, IN_BASE_1to2B, CONTROL_BASE_1to2B);
			WRITE_FIFO(&Cr, IN_BASE_1to2C, CONTROL_BASE_1to2C);
		}

		if ((j = (8 - cols)) > 0)
   2052c:	e0bff88b 	ldhu	r2,-30(fp)
   20530:	00c00204 	movi	r3,8
   20534:	1885c83a 	sub	r2,r3,r2
   20538:	e0bff715 	stw	r2,-36(fp)
   2053c:	e0bff717 	ldw	r2,-36(fp)
   20540:	00806f0e 	bge	zero,r2,20700 <read_444_format+0x408>
		{
			R = *(input_ptr - 3);
   20544:	e0bfff17 	ldw	r2,-4(fp)
   20548:	10bfff43 	ldbu	r2,-3(r2)
   2054c:	e0bff985 	stb	r2,-26(fp)
			G = *(input_ptr - 2);
   20550:	e0bfff17 	ldw	r2,-4(fp)
   20554:	10bfff83 	ldbu	r2,-2(r2)
   20558:	e0bff9c5 	stb	r2,-25(fp)
			B = *(input_ptr - 1);
   2055c:	e0bfff17 	ldw	r2,-4(fp)
   20560:	10bfffc3 	ldbu	r2,-1(r2)
   20564:	e0bffa05 	stb	r2,-24(fp)

			Y = ((77 * R + 150 * G + 29 * B) >> 8);
   20568:	e0bff983 	ldbu	r2,-26(fp)
   2056c:	1009883a 	mov	r4,r2
   20570:	01401344 	movi	r5,77
   20574:	00210140 	call	21014 <__mulsi3>
   20578:	1021883a 	mov	r16,r2
   2057c:	e0bff9c3 	ldbu	r2,-25(fp)
   20580:	1009883a 	mov	r4,r2
   20584:	01402584 	movi	r5,150
   20588:	00210140 	call	21014 <__mulsi3>
   2058c:	80a1883a 	add	r16,r16,r2
   20590:	e0bffa03 	ldbu	r2,-24(fp)
   20594:	1009883a 	mov	r4,r2
   20598:	01400744 	movi	r5,29
   2059c:	00210140 	call	21014 <__mulsi3>
   205a0:	8085883a 	add	r2,r16,r2
   205a4:	1005d23a 	srai	r2,r2,8
   205a8:	e0bffb15 	stw	r2,-20(fp)
			Cb = ((-43 * R - 85 * G + 128 * B) >> 8) + 128;
   205ac:	e0bff983 	ldbu	r2,-26(fp)
   205b0:	1009883a 	mov	r4,r2
   205b4:	017ff544 	movi	r5,-43
   205b8:	00210140 	call	21014 <__mulsi3>
   205bc:	1021883a 	mov	r16,r2
   205c0:	e0bff9c3 	ldbu	r2,-25(fp)
   205c4:	1009883a 	mov	r4,r2
   205c8:	017feac4 	movi	r5,-85
   205cc:	00210140 	call	21014 <__mulsi3>
   205d0:	8087883a 	add	r3,r16,r2
   205d4:	e0bffa03 	ldbu	r2,-24(fp)
   205d8:	100491fa 	slli	r2,r2,7
   205dc:	1885883a 	add	r2,r3,r2
   205e0:	1005d23a 	srai	r2,r2,8
   205e4:	10802004 	addi	r2,r2,128
   205e8:	e0bffc15 	stw	r2,-16(fp)
			Cr = ((128 * R - 107 * G - 21 * B) >> 8) + 128;
   205ec:	e0bff983 	ldbu	r2,-26(fp)
   205f0:	102091fa 	slli	r16,r2,7
   205f4:	e0bff9c3 	ldbu	r2,-25(fp)
   205f8:	1009883a 	mov	r4,r2
   205fc:	017fe544 	movi	r5,-107
   20600:	00210140 	call	21014 <__mulsi3>
   20604:	80a1883a 	add	r16,r16,r2
   20608:	e0bffa03 	ldbu	r2,-24(fp)
   2060c:	1009883a 	mov	r4,r2
   20610:	017ffac4 	movi	r5,-21
   20614:	00210140 	call	21014 <__mulsi3>
   20618:	8085883a 	add	r2,r16,r2
   2061c:	1005d23a 	srai	r2,r2,8
   20620:	10802004 	addi	r2,r2,128
   20624:	e0bffd15 	stw	r2,-12(fp)

			if (Y < 0)
   20628:	e0bffb17 	ldw	r2,-20(fp)
   2062c:	1000020e 	bge	r2,zero,20638 <read_444_format+0x340>
				Y = 0;
   20630:	e03ffb15 	stw	zero,-20(fp)
   20634:	00000506 	br	2064c <read_444_format+0x354>
			else if (Y > 255)
   20638:	e0bffb17 	ldw	r2,-20(fp)
   2063c:	10804010 	cmplti	r2,r2,256
   20640:	1000021e 	bne	r2,zero,2064c <read_444_format+0x354>
				Y = 255;
   20644:	00803fc4 	movi	r2,255
   20648:	e0bffb15 	stw	r2,-20(fp)

			if (Cb < 0)
   2064c:	e0bffc17 	ldw	r2,-16(fp)
   20650:	1000020e 	bge	r2,zero,2065c <read_444_format+0x364>
				Cb = 0;
   20654:	e03ffc15 	stw	zero,-16(fp)
   20658:	00000506 	br	20670 <read_444_format+0x378>
			else if (Cb > 255)
   2065c:	e0bffc17 	ldw	r2,-16(fp)
   20660:	10804010 	cmplti	r2,r2,256
   20664:	1000021e 	bne	r2,zero,20670 <read_444_format+0x378>
				Cb = 255;
   20668:	00803fc4 	movi	r2,255
   2066c:	e0bffc15 	stw	r2,-16(fp)

			if (Cr < 0)
   20670:	e0bffd17 	ldw	r2,-12(fp)
   20674:	1000020e 	bge	r2,zero,20680 <read_444_format+0x388>
				Cr = 0;
   20678:	e03ffd15 	stw	zero,-12(fp)
			else if (Cr > 255)
				Cr = 255;

			for (; j > 0; j--)
   2067c:	00001e06 	br	206f8 <read_444_format+0x400>
			else if (Cb > 255)
				Cb = 255;

			if (Cr < 0)
				Cr = 0;
			else if (Cr > 255)
   20680:	e0bffd17 	ldw	r2,-12(fp)
   20684:	10804010 	cmplti	r2,r2,256
   20688:	10001b1e 	bne	r2,zero,206f8 <read_444_format+0x400>
				Cr = 255;
   2068c:	00803fc4 	movi	r2,255
   20690:	e0bffd15 	stw	r2,-12(fp)

			for (; j > 0; j--)
   20694:	00001806 	br	206f8 <read_444_format+0x400>
			{

				WRITE_FIFO(&Y, IN_BASE_1to2A, CONTROL_BASE_1to2A);
   20698:	e0bffb04 	addi	r2,fp,-20
   2069c:	1009883a 	mov	r4,r2
   206a0:	01400134 	movhi	r5,4
   206a4:	29443fc4 	addi	r5,r5,4351
   206a8:	01800134 	movhi	r6,4
   206ac:	31806804 	addi	r6,r6,416
   206b0:	00201f40 	call	201f4 <WRITE_FIFO>
				WRITE_FIFO(&Cb, IN_BASE_1to2B, CONTROL_BASE_1to2B);
   206b4:	e0bffc04 	addi	r2,fp,-16
   206b8:	1009883a 	mov	r4,r2
   206bc:	01400134 	movhi	r5,4
   206c0:	29443e04 	addi	r5,r5,4344
   206c4:	01800134 	movhi	r6,4
   206c8:	31842004 	addi	r6,r6,4224
   206cc:	00201f40 	call	201f4 <WRITE_FIFO>
				WRITE_FIFO(&Cr, IN_BASE_1to2C, CONTROL_BASE_1to2C);
   206d0:	e0bffd04 	addi	r2,fp,-12
   206d4:	1009883a 	mov	r4,r2
   206d8:	01400134 	movhi	r5,4
   206dc:	29443d04 	addi	r5,r5,4340
   206e0:	01800134 	movhi	r6,4
   206e4:	31841804 	addi	r6,r6,4192
   206e8:	00201f40 	call	201f4 <WRITE_FIFO>
			if (Cr < 0)
				Cr = 0;
			else if (Cr > 255)
				Cr = 255;

			for (; j > 0; j--)
   206ec:	e0bff717 	ldw	r2,-36(fp)
   206f0:	10bfffc4 	addi	r2,r2,-1
   206f4:	e0bff715 	stw	r2,-36(fp)
   206f8:	e0bff717 	ldw	r2,-36(fp)
   206fc:	00bfe616 	blt	zero,r2,20698 <read_444_format+0x3a0>
				WRITE_FIFO(&Cb, IN_BASE_1to2B, CONTROL_BASE_1to2B);
				WRITE_FIFO(&Cr, IN_BASE_1to2C, CONTROL_BASE_1to2C);
			}
		}

		input_ptr += incr;
   20700:	e0bff90b 	ldhu	r2,-28(fp)
   20704:	e0ffff17 	ldw	r3,-4(fp)
   20708:	1885883a 	add	r2,r3,r2
   2070c:	e0bfff15 	stw	r2,-4(fp)

	UINT16 rows = jpeg_encoder_structure->rows;
	UINT16 cols = jpeg_encoder_structure->cols;
	UINT16 incr = jpeg_encoder_structure->incr;

	for (i = rows; i > 0; i--)
   20710:	e0bff617 	ldw	r2,-40(fp)
   20714:	10bfffc4 	addi	r2,r2,-1
   20718:	e0bff615 	stw	r2,-40(fp)
   2071c:	e0bff617 	ldw	r2,-40(fp)
   20720:	00bf0816 	blt	zero,r2,20344 <read_444_format+0x4c>
		}

		input_ptr += incr;
	}

	input_ptr -= incr;
   20724:	e0bff90b 	ldhu	r2,-28(fp)
   20728:	0085c83a 	sub	r2,zero,r2
   2072c:	e0ffff17 	ldw	r3,-4(fp)
   20730:	1885883a 	add	r2,r3,r2
   20734:	e0bfff15 	stw	r2,-4(fp)

	for (i = 8 - rows; i > 0; i--)
   20738:	e0bff80b 	ldhu	r2,-32(fp)
   2073c:	00c00204 	movi	r3,8
   20740:	1885c83a 	sub	r2,r3,r2
   20744:	e0bff615 	stw	r2,-40(fp)
   20748:	0000fb06 	br	20b38 <read_444_format+0x840>
	{
		for (j = cols * 3; j > 0;)
   2074c:	e0fff88b 	ldhu	r3,-30(fp)
   20750:	1805883a 	mov	r2,r3
   20754:	1085883a 	add	r2,r2,r2
   20758:	10c5883a 	add	r2,r2,r3
   2075c:	e0bff715 	stw	r2,-36(fp)
   20760:	00007b06 	br	20950 <read_444_format+0x658>
		{
			R = *(input_ptr - (j--));
   20764:	e0bff717 	ldw	r2,-36(fp)
   20768:	0085c83a 	sub	r2,zero,r2
   2076c:	e0ffff17 	ldw	r3,-4(fp)
   20770:	1885883a 	add	r2,r3,r2
   20774:	10800003 	ldbu	r2,0(r2)
   20778:	e0bff985 	stb	r2,-26(fp)
   2077c:	e0bff717 	ldw	r2,-36(fp)
   20780:	10bfffc4 	addi	r2,r2,-1
   20784:	e0bff715 	stw	r2,-36(fp)
			G = *(input_ptr - (j--));
   20788:	e0bff717 	ldw	r2,-36(fp)
   2078c:	0085c83a 	sub	r2,zero,r2
   20790:	e0ffff17 	ldw	r3,-4(fp)
   20794:	1885883a 	add	r2,r3,r2
   20798:	10800003 	ldbu	r2,0(r2)
   2079c:	e0bff9c5 	stb	r2,-25(fp)
   207a0:	e0bff717 	ldw	r2,-36(fp)
   207a4:	10bfffc4 	addi	r2,r2,-1
   207a8:	e0bff715 	stw	r2,-36(fp)
			B = *(input_ptr - (j--));
   207ac:	e0bff717 	ldw	r2,-36(fp)
   207b0:	0085c83a 	sub	r2,zero,r2
   207b4:	e0ffff17 	ldw	r3,-4(fp)
   207b8:	1885883a 	add	r2,r3,r2
   207bc:	10800003 	ldbu	r2,0(r2)
   207c0:	e0bffa05 	stb	r2,-24(fp)
   207c4:	e0bff717 	ldw	r2,-36(fp)
   207c8:	10bfffc4 	addi	r2,r2,-1
   207cc:	e0bff715 	stw	r2,-36(fp)

			Y = ((77 * R + 150 * G + 29 * B) >> 8);
   207d0:	e0bff983 	ldbu	r2,-26(fp)
   207d4:	1009883a 	mov	r4,r2
   207d8:	01401344 	movi	r5,77
   207dc:	00210140 	call	21014 <__mulsi3>
   207e0:	1021883a 	mov	r16,r2
   207e4:	e0bff9c3 	ldbu	r2,-25(fp)
   207e8:	1009883a 	mov	r4,r2
   207ec:	01402584 	movi	r5,150
   207f0:	00210140 	call	21014 <__mulsi3>
   207f4:	80a1883a 	add	r16,r16,r2
   207f8:	e0bffa03 	ldbu	r2,-24(fp)
   207fc:	1009883a 	mov	r4,r2
   20800:	01400744 	movi	r5,29
   20804:	00210140 	call	21014 <__mulsi3>
   20808:	8085883a 	add	r2,r16,r2
   2080c:	1005d23a 	srai	r2,r2,8
   20810:	e0bffb15 	stw	r2,-20(fp)
			Cb = ((-43 * R - 85 * G + 128 * B) >> 8) + 128;
   20814:	e0bff983 	ldbu	r2,-26(fp)
   20818:	1009883a 	mov	r4,r2
   2081c:	017ff544 	movi	r5,-43
   20820:	00210140 	call	21014 <__mulsi3>
   20824:	1021883a 	mov	r16,r2
   20828:	e0bff9c3 	ldbu	r2,-25(fp)
   2082c:	1009883a 	mov	r4,r2
   20830:	017feac4 	movi	r5,-85
   20834:	00210140 	call	21014 <__mulsi3>
   20838:	8087883a 	add	r3,r16,r2
   2083c:	e0bffa03 	ldbu	r2,-24(fp)
   20840:	100491fa 	slli	r2,r2,7
   20844:	1885883a 	add	r2,r3,r2
   20848:	1005d23a 	srai	r2,r2,8
   2084c:	10802004 	addi	r2,r2,128
   20850:	e0bffc15 	stw	r2,-16(fp)
			Cr = ((128 * R - 107 * G - 21 * B) >> 8) + 128;
   20854:	e0bff983 	ldbu	r2,-26(fp)
   20858:	102091fa 	slli	r16,r2,7
   2085c:	e0bff9c3 	ldbu	r2,-25(fp)
   20860:	1009883a 	mov	r4,r2
   20864:	017fe544 	movi	r5,-107
   20868:	00210140 	call	21014 <__mulsi3>
   2086c:	80a1883a 	add	r16,r16,r2
   20870:	e0bffa03 	ldbu	r2,-24(fp)
   20874:	1009883a 	mov	r4,r2
   20878:	017ffac4 	movi	r5,-21
   2087c:	00210140 	call	21014 <__mulsi3>
   20880:	8085883a 	add	r2,r16,r2
   20884:	1005d23a 	srai	r2,r2,8
   20888:	10802004 	addi	r2,r2,128
   2088c:	e0bffd15 	stw	r2,-12(fp)

			if (Y < 0)
   20890:	e0bffb17 	ldw	r2,-20(fp)
   20894:	1000020e 	bge	r2,zero,208a0 <read_444_format+0x5a8>
				Y = 0;
   20898:	e03ffb15 	stw	zero,-20(fp)
   2089c:	00000506 	br	208b4 <read_444_format+0x5bc>
			else if (Y > 255)
   208a0:	e0bffb17 	ldw	r2,-20(fp)
   208a4:	10804010 	cmplti	r2,r2,256
   208a8:	1000021e 	bne	r2,zero,208b4 <read_444_format+0x5bc>
				Y = 255;
   208ac:	00803fc4 	movi	r2,255
   208b0:	e0bffb15 	stw	r2,-20(fp)

			if (Cb < 0)
   208b4:	e0bffc17 	ldw	r2,-16(fp)
   208b8:	1000020e 	bge	r2,zero,208c4 <read_444_format+0x5cc>
				Cb = 0;
   208bc:	e03ffc15 	stw	zero,-16(fp)
   208c0:	00000506 	br	208d8 <read_444_format+0x5e0>
			else if (Cb > 255)
   208c4:	e0bffc17 	ldw	r2,-16(fp)
   208c8:	10804010 	cmplti	r2,r2,256
   208cc:	1000021e 	bne	r2,zero,208d8 <read_444_format+0x5e0>
				Cb = 255;
   208d0:	00803fc4 	movi	r2,255
   208d4:	e0bffc15 	stw	r2,-16(fp)

			if (Cr < 0)
   208d8:	e0bffd17 	ldw	r2,-12(fp)
   208dc:	1000020e 	bge	r2,zero,208e8 <read_444_format+0x5f0>
				Cr = 0;
   208e0:	e03ffd15 	stw	zero,-12(fp)
   208e4:	00000506 	br	208fc <read_444_format+0x604>
			else if (Cr > 255)
   208e8:	e0bffd17 	ldw	r2,-12(fp)
   208ec:	10804010 	cmplti	r2,r2,256
   208f0:	1000021e 	bne	r2,zero,208fc <read_444_format+0x604>
				Cr = 255;
   208f4:	00803fc4 	movi	r2,255
   208f8:	e0bffd15 	stw	r2,-12(fp)

			WRITE_FIFO(&Y, IN_BASE_1to2A, CONTROL_BASE_1to2A);
   208fc:	e0bffb04 	addi	r2,fp,-20
   20900:	1009883a 	mov	r4,r2
   20904:	01400134 	movhi	r5,4
   20908:	29443fc4 	addi	r5,r5,4351
   2090c:	01800134 	movhi	r6,4
   20910:	31806804 	addi	r6,r6,416
   20914:	00201f40 	call	201f4 <WRITE_FIFO>
			WRITE_FIFO(&Cb, IN_BASE_1to2B, CONTROL_BASE_1to2B);
   20918:	e0bffc04 	addi	r2,fp,-16
   2091c:	1009883a 	mov	r4,r2
   20920:	01400134 	movhi	r5,4
   20924:	29443e04 	addi	r5,r5,4344
   20928:	01800134 	movhi	r6,4
   2092c:	31842004 	addi	r6,r6,4224
   20930:	00201f40 	call	201f4 <WRITE_FIFO>
			WRITE_FIFO(&Cr, IN_BASE_1to2C, CONTROL_BASE_1to2C);
   20934:	e0bffd04 	addi	r2,fp,-12
   20938:	1009883a 	mov	r4,r2
   2093c:	01400134 	movhi	r5,4
   20940:	29443d04 	addi	r5,r5,4340
   20944:	01800134 	movhi	r6,4
   20948:	31841804 	addi	r6,r6,4192
   2094c:	00201f40 	call	201f4 <WRITE_FIFO>

	input_ptr -= incr;

	for (i = 8 - rows; i > 0; i--)
	{
		for (j = cols * 3; j > 0;)
   20950:	e0bff717 	ldw	r2,-36(fp)
   20954:	00bf8316 	blt	zero,r2,20764 <read_444_format+0x46c>
			WRITE_FIFO(&Y, IN_BASE_1to2A, CONTROL_BASE_1to2A);
			WRITE_FIFO(&Cb, IN_BASE_1to2B, CONTROL_BASE_1to2B);
			WRITE_FIFO(&Cr, IN_BASE_1to2C, CONTROL_BASE_1to2C);
		}

		if ((j = (8 - cols)) > 0)
   20958:	e0bff88b 	ldhu	r2,-30(fp)
   2095c:	00c00204 	movi	r3,8
   20960:	1885c83a 	sub	r2,r3,r2
   20964:	e0bff715 	stw	r2,-36(fp)
   20968:	e0bff717 	ldw	r2,-36(fp)
   2096c:	00806f0e 	bge	zero,r2,20b2c <read_444_format+0x834>
		{
			R = *(input_ptr - 3);
   20970:	e0bfff17 	ldw	r2,-4(fp)
   20974:	10bfff43 	ldbu	r2,-3(r2)
   20978:	e0bff985 	stb	r2,-26(fp)
			G = *(input_ptr - 2);
   2097c:	e0bfff17 	ldw	r2,-4(fp)
   20980:	10bfff83 	ldbu	r2,-2(r2)
   20984:	e0bff9c5 	stb	r2,-25(fp)
			B = *(input_ptr - 1);
   20988:	e0bfff17 	ldw	r2,-4(fp)
   2098c:	10bfffc3 	ldbu	r2,-1(r2)
   20990:	e0bffa05 	stb	r2,-24(fp)

			Y = ((77 * R + 150 * G + 29 * B) >> 8);
   20994:	e0bff983 	ldbu	r2,-26(fp)
   20998:	1009883a 	mov	r4,r2
   2099c:	01401344 	movi	r5,77
   209a0:	00210140 	call	21014 <__mulsi3>
   209a4:	1021883a 	mov	r16,r2
   209a8:	e0bff9c3 	ldbu	r2,-25(fp)
   209ac:	1009883a 	mov	r4,r2
   209b0:	01402584 	movi	r5,150
   209b4:	00210140 	call	21014 <__mulsi3>
   209b8:	80a1883a 	add	r16,r16,r2
   209bc:	e0bffa03 	ldbu	r2,-24(fp)
   209c0:	1009883a 	mov	r4,r2
   209c4:	01400744 	movi	r5,29
   209c8:	00210140 	call	21014 <__mulsi3>
   209cc:	8085883a 	add	r2,r16,r2
   209d0:	1005d23a 	srai	r2,r2,8
   209d4:	e0bffb15 	stw	r2,-20(fp)
			Cb = ((-43 * R - 85 * G + 128 * B) >> 8) + 128;
   209d8:	e0bff983 	ldbu	r2,-26(fp)
   209dc:	1009883a 	mov	r4,r2
   209e0:	017ff544 	movi	r5,-43
   209e4:	00210140 	call	21014 <__mulsi3>
   209e8:	1021883a 	mov	r16,r2
   209ec:	e0bff9c3 	ldbu	r2,-25(fp)
   209f0:	1009883a 	mov	r4,r2
   209f4:	017feac4 	movi	r5,-85
   209f8:	00210140 	call	21014 <__mulsi3>
   209fc:	8087883a 	add	r3,r16,r2
   20a00:	e0bffa03 	ldbu	r2,-24(fp)
   20a04:	100491fa 	slli	r2,r2,7
   20a08:	1885883a 	add	r2,r3,r2
   20a0c:	1005d23a 	srai	r2,r2,8
   20a10:	10802004 	addi	r2,r2,128
   20a14:	e0bffc15 	stw	r2,-16(fp)
			Cr = ((128 * R - 107 * G - 21 * B) >> 8) + 128;
   20a18:	e0bff983 	ldbu	r2,-26(fp)
   20a1c:	102091fa 	slli	r16,r2,7
   20a20:	e0bff9c3 	ldbu	r2,-25(fp)
   20a24:	1009883a 	mov	r4,r2
   20a28:	017fe544 	movi	r5,-107
   20a2c:	00210140 	call	21014 <__mulsi3>
   20a30:	80a1883a 	add	r16,r16,r2
   20a34:	e0bffa03 	ldbu	r2,-24(fp)
   20a38:	1009883a 	mov	r4,r2
   20a3c:	017ffac4 	movi	r5,-21
   20a40:	00210140 	call	21014 <__mulsi3>
   20a44:	8085883a 	add	r2,r16,r2
   20a48:	1005d23a 	srai	r2,r2,8
   20a4c:	10802004 	addi	r2,r2,128
   20a50:	e0bffd15 	stw	r2,-12(fp)

			if (Y < 0)
   20a54:	e0bffb17 	ldw	r2,-20(fp)
   20a58:	1000020e 	bge	r2,zero,20a64 <read_444_format+0x76c>
				Y = 0;
   20a5c:	e03ffb15 	stw	zero,-20(fp)
   20a60:	00000506 	br	20a78 <read_444_format+0x780>
			else if (Y > 255)
   20a64:	e0bffb17 	ldw	r2,-20(fp)
   20a68:	10804010 	cmplti	r2,r2,256
   20a6c:	1000021e 	bne	r2,zero,20a78 <read_444_format+0x780>
				Y = 255;
   20a70:	00803fc4 	movi	r2,255
   20a74:	e0bffb15 	stw	r2,-20(fp)

			if (Cb < 0)
   20a78:	e0bffc17 	ldw	r2,-16(fp)
   20a7c:	1000020e 	bge	r2,zero,20a88 <read_444_format+0x790>
				Cb = 0;
   20a80:	e03ffc15 	stw	zero,-16(fp)
   20a84:	00000506 	br	20a9c <read_444_format+0x7a4>
			else if (Cb > 255)
   20a88:	e0bffc17 	ldw	r2,-16(fp)
   20a8c:	10804010 	cmplti	r2,r2,256
   20a90:	1000021e 	bne	r2,zero,20a9c <read_444_format+0x7a4>
				Cb = 255;
   20a94:	00803fc4 	movi	r2,255
   20a98:	e0bffc15 	stw	r2,-16(fp)

			if (Cr < 0)
   20a9c:	e0bffd17 	ldw	r2,-12(fp)
   20aa0:	1000020e 	bge	r2,zero,20aac <read_444_format+0x7b4>
				Cr = 0;
   20aa4:	e03ffd15 	stw	zero,-12(fp)
			else if (Cr > 255)
				Cr = 255;

			for (; j > 0; j--)
   20aa8:	00001e06 	br	20b24 <read_444_format+0x82c>
			else if (Cb > 255)
				Cb = 255;

			if (Cr < 0)
				Cr = 0;
			else if (Cr > 255)
   20aac:	e0bffd17 	ldw	r2,-12(fp)
   20ab0:	10804010 	cmplti	r2,r2,256
   20ab4:	10001b1e 	bne	r2,zero,20b24 <read_444_format+0x82c>
				Cr = 255;
   20ab8:	00803fc4 	movi	r2,255
   20abc:	e0bffd15 	stw	r2,-12(fp)

			for (; j > 0; j--)
   20ac0:	00001806 	br	20b24 <read_444_format+0x82c>
			{
				WRITE_FIFO(&Y, IN_BASE_1to2A, CONTROL_BASE_1to2A);
   20ac4:	e0bffb04 	addi	r2,fp,-20
   20ac8:	1009883a 	mov	r4,r2
   20acc:	01400134 	movhi	r5,4
   20ad0:	29443fc4 	addi	r5,r5,4351
   20ad4:	01800134 	movhi	r6,4
   20ad8:	31806804 	addi	r6,r6,416
   20adc:	00201f40 	call	201f4 <WRITE_FIFO>
				WRITE_FIFO(&Cb, IN_BASE_1to2B, CONTROL_BASE_1to2B);
   20ae0:	e0bffc04 	addi	r2,fp,-16
   20ae4:	1009883a 	mov	r4,r2
   20ae8:	01400134 	movhi	r5,4
   20aec:	29443e04 	addi	r5,r5,4344
   20af0:	01800134 	movhi	r6,4
   20af4:	31842004 	addi	r6,r6,4224
   20af8:	00201f40 	call	201f4 <WRITE_FIFO>
				WRITE_FIFO(&Cr, IN_BASE_1to2C, CONTROL_BASE_1to2C);
   20afc:	e0bffd04 	addi	r2,fp,-12
   20b00:	1009883a 	mov	r4,r2
   20b04:	01400134 	movhi	r5,4
   20b08:	29443d04 	addi	r5,r5,4340
   20b0c:	01800134 	movhi	r6,4
   20b10:	31841804 	addi	r6,r6,4192
   20b14:	00201f40 	call	201f4 <WRITE_FIFO>
			if (Cr < 0)
				Cr = 0;
			else if (Cr > 255)
				Cr = 255;

			for (; j > 0; j--)
   20b18:	e0bff717 	ldw	r2,-36(fp)
   20b1c:	10bfffc4 	addi	r2,r2,-1
   20b20:	e0bff715 	stw	r2,-36(fp)
   20b24:	e0bff717 	ldw	r2,-36(fp)
   20b28:	00bfe616 	blt	zero,r2,20ac4 <read_444_format+0x7cc>
		input_ptr += incr;
	}

	input_ptr -= incr;

	for (i = 8 - rows; i > 0; i--)
   20b2c:	e0bff617 	ldw	r2,-40(fp)
   20b30:	10bfffc4 	addi	r2,r2,-1
   20b34:	e0bff615 	stw	r2,-40(fp)
   20b38:	e0bff617 	ldw	r2,-40(fp)
   20b3c:	00bf0316 	blt	zero,r2,2074c <read_444_format+0x454>
				WRITE_FIFO(&Cb, IN_BASE_1to2B, CONTROL_BASE_1to2B);
				WRITE_FIFO(&Cr, IN_BASE_1to2C, CONTROL_BASE_1to2C);
			}
		}
	}
}
   20b40:	e037883a 	mov	sp,fp
   20b44:	dfc00217 	ldw	ra,8(sp)
   20b48:	df000117 	ldw	fp,4(sp)
   20b4c:	dc000017 	ldw	r16,0(sp)
   20b50:	dec00304 	addi	sp,sp,12
   20b54:	f800283a 	ret

00020b58 <initialization>:

#ifndef ENCODER_H
#define ENCODER_H

void initialization(JPEG_ENCODER_STRUCTURE *jpeg, UINT32 image_width, UINT32 image_height)
{
   20b58:	defff804 	addi	sp,sp,-32
   20b5c:	dfc00715 	stw	ra,28(sp)
   20b60:	df000615 	stw	fp,24(sp)
   20b64:	dc000515 	stw	r16,20(sp)
   20b68:	df000504 	addi	fp,sp,20
   20b6c:	e13ffd15 	stw	r4,-12(fp)
   20b70:	e17ffe15 	stw	r5,-8(fp)
   20b74:	e1bfff15 	stw	r6,-4(fp)
	UINT16 mcu_width, mcu_height, bytes_per_pixel;

	jpeg->mcu_width = mcu_width = 8;
   20b78:	00800204 	movi	r2,8
   20b7c:	e0bffb0d 	sth	r2,-20(fp)
   20b80:	e0bffd17 	ldw	r2,-12(fp)
   20b84:	e0fffb0b 	ldhu	r3,-20(fp)
   20b88:	10c0000d 	sth	r3,0(r2)
	jpeg->mcu_height = mcu_height = 8;
   20b8c:	00800204 	movi	r2,8
   20b90:	e0bffb8d 	sth	r2,-18(fp)
   20b94:	e0bffd17 	ldw	r2,-12(fp)
   20b98:	e0fffb8b 	ldhu	r3,-18(fp)
   20b9c:	10c0008d 	sth	r3,2(r2)

	jpeg->horizontal_mcus = (UINT16)((image_width + mcu_width - 1) >> 3);
   20ba0:	e0fffb0b 	ldhu	r3,-20(fp)
   20ba4:	e0bffe17 	ldw	r2,-8(fp)
   20ba8:	1885883a 	add	r2,r3,r2
   20bac:	10bfffc4 	addi	r2,r2,-1
   20bb0:	1004d0fa 	srli	r2,r2,3
   20bb4:	1007883a 	mov	r3,r2
   20bb8:	e0bffd17 	ldw	r2,-12(fp)
   20bbc:	10c0010d 	sth	r3,4(r2)
	jpeg->vertical_mcus = (UINT16)((image_height + mcu_height - 1) >> 3);
   20bc0:	e0fffb8b 	ldhu	r3,-18(fp)
   20bc4:	e0bfff17 	ldw	r2,-4(fp)
   20bc8:	1885883a 	add	r2,r3,r2
   20bcc:	10bfffc4 	addi	r2,r2,-1
   20bd0:	1004d0fa 	srli	r2,r2,3
   20bd4:	1007883a 	mov	r3,r2
   20bd8:	e0bffd17 	ldw	r2,-12(fp)
   20bdc:	10c0018d 	sth	r3,6(r2)

	bytes_per_pixel = 3;
   20be0:	008000c4 	movi	r2,3
   20be4:	e0bffc0d 	sth	r2,-16(fp)

	jpeg->rows_in_bottom_mcus = (UINT16)(image_height - (jpeg->vertical_mcus - 1) * mcu_height);
   20be8:	e0bfff17 	ldw	r2,-4(fp)
   20bec:	1021883a 	mov	r16,r2
   20bf0:	e0bffd17 	ldw	r2,-12(fp)
   20bf4:	1080018b 	ldhu	r2,6(r2)
   20bf8:	10bfffcc 	andi	r2,r2,65535
   20bfc:	10bfffc4 	addi	r2,r2,-1
   20c00:	1007883a 	mov	r3,r2
   20c04:	e0bffb8b 	ldhu	r2,-18(fp)
   20c08:	1809883a 	mov	r4,r3
   20c0c:	100b883a 	mov	r5,r2
   20c10:	00210140 	call	21014 <__mulsi3>
   20c14:	8085c83a 	sub	r2,r16,r2
   20c18:	1007883a 	mov	r3,r2
   20c1c:	e0bffd17 	ldw	r2,-12(fp)
   20c20:	10c0028d 	sth	r3,10(r2)
	jpeg->cols_in_right_mcus = (UINT16)(image_width - (jpeg->horizontal_mcus - 1) * mcu_width);
   20c24:	e0bffe17 	ldw	r2,-8(fp)
   20c28:	1021883a 	mov	r16,r2
   20c2c:	e0bffd17 	ldw	r2,-12(fp)
   20c30:	1080010b 	ldhu	r2,4(r2)
   20c34:	10bfffcc 	andi	r2,r2,65535
   20c38:	10bfffc4 	addi	r2,r2,-1
   20c3c:	1007883a 	mov	r3,r2
   20c40:	e0bffb0b 	ldhu	r2,-20(fp)
   20c44:	1809883a 	mov	r4,r3
   20c48:	100b883a 	mov	r5,r2
   20c4c:	00210140 	call	21014 <__mulsi3>
   20c50:	8085c83a 	sub	r2,r16,r2
   20c54:	1007883a 	mov	r3,r2
   20c58:	e0bffd17 	ldw	r2,-12(fp)
   20c5c:	10c0020d 	sth	r3,8(r2)

	jpeg->length_minus_mcu_width = (UINT16)((image_width - mcu_width) * bytes_per_pixel);
   20c60:	e0bffb0b 	ldhu	r2,-20(fp)
   20c64:	e0fffe17 	ldw	r3,-8(fp)
   20c68:	1885c83a 	sub	r2,r3,r2
   20c6c:	1007883a 	mov	r3,r2
   20c70:	e0bffc0b 	ldhu	r2,-16(fp)
   20c74:	1809883a 	mov	r4,r3
   20c78:	100b883a 	mov	r5,r2
   20c7c:	00210140 	call	21014 <__mulsi3>
   20c80:	1007883a 	mov	r3,r2
   20c84:	e0bffd17 	ldw	r2,-12(fp)
   20c88:	10c0040d 	sth	r3,16(r2)
	jpeg->length_minus_width = (UINT16)((image_width - jpeg->cols_in_right_mcus) * bytes_per_pixel);
   20c8c:	e0bffd17 	ldw	r2,-12(fp)
   20c90:	1080020b 	ldhu	r2,8(r2)
   20c94:	10bfffcc 	andi	r2,r2,65535
   20c98:	e0fffe17 	ldw	r3,-8(fp)
   20c9c:	1885c83a 	sub	r2,r3,r2
   20ca0:	1007883a 	mov	r3,r2
   20ca4:	e0bffc0b 	ldhu	r2,-16(fp)
   20ca8:	1809883a 	mov	r4,r3
   20cac:	100b883a 	mov	r5,r2
   20cb0:	00210140 	call	21014 <__mulsi3>
   20cb4:	1007883a 	mov	r3,r2
   20cb8:	e0bffd17 	ldw	r2,-12(fp)
   20cbc:	10c0048d 	sth	r3,18(r2)

	jpeg->mcu_width_size = (UINT16)(mcu_width * bytes_per_pixel);
   20cc0:	e0fffb0b 	ldhu	r3,-20(fp)
   20cc4:	e0bffc0b 	ldhu	r2,-16(fp)
   20cc8:	1809883a 	mov	r4,r3
   20ccc:	100b883a 	mov	r5,r2
   20cd0:	00210140 	call	21014 <__mulsi3>
   20cd4:	1007883a 	mov	r3,r2
   20cd8:	e0bffd17 	ldw	r2,-12(fp)
   20cdc:	10c0058d 	sth	r3,22(r2)

	jpeg->offset = (UINT16)((image_width * ((mcu_height >> 1) - 1) - (mcu_width - jpeg->cols_in_right_mcus)) * bytes_per_pixel);
   20ce0:	e0bffb8b 	ldhu	r2,-18(fp)
   20ce4:	1004d07a 	srli	r2,r2,1
   20ce8:	10bfffcc 	andi	r2,r2,65535
   20cec:	10bfffc4 	addi	r2,r2,-1
   20cf0:	1009883a 	mov	r4,r2
   20cf4:	e17ffe17 	ldw	r5,-8(fp)
   20cf8:	00210140 	call	21014 <__mulsi3>
   20cfc:	1007883a 	mov	r3,r2
   20d00:	e0bffd17 	ldw	r2,-12(fp)
   20d04:	1080020b 	ldhu	r2,8(r2)
   20d08:	113fffcc 	andi	r4,r2,65535
   20d0c:	e0bffb0b 	ldhu	r2,-20(fp)
   20d10:	2085c83a 	sub	r2,r4,r2
   20d14:	1885883a 	add	r2,r3,r2
   20d18:	1007883a 	mov	r3,r2
   20d1c:	e0bffc0b 	ldhu	r2,-16(fp)
   20d20:	1809883a 	mov	r4,r3
   20d24:	100b883a 	mov	r5,r2
   20d28:	00210140 	call	21014 <__mulsi3>
   20d2c:	1007883a 	mov	r3,r2
   20d30:	e0bffd17 	ldw	r2,-12(fp)
   20d34:	10c0060d 	sth	r3,24(r2)
}
   20d38:	e037883a 	mov	sp,fp
   20d3c:	dfc00217 	ldw	ra,8(sp)
   20d40:	df000117 	ldw	fp,4(sp)
   20d44:	dc000017 	ldw	r16,0(sp)
   20d48:	dec00304 	addi	sp,sp,12
   20d4c:	f800283a 	ret

00020d50 <encode_image>:

UINT8 encode_image(char *input_file_name, UINT32 quality_factor, UINT32 image_width, UINT32 image_height)
{
   20d50:	deffef04 	addi	sp,sp,-68
   20d54:	dfc01015 	stw	ra,64(sp)
   20d58:	df000f15 	stw	fp,60(sp)
   20d5c:	df000f04 	addi	fp,sp,60
   20d60:	e13ffc15 	stw	r4,-16(fp)
   20d64:	e17ffd15 	stw	r5,-12(fp)
   20d68:	e1bffe15 	stw	r6,-8(fp)
   20d6c:	e1ffff15 	stw	r7,-4(fp)
	UINT16 i, j;

	JPEG_ENCODER_STRUCTURE JpegStruct;
	JPEG_ENCODER_STRUCTURE *jpeg_encoder_structure = &JpegStruct;
   20d70:	e0bff504 	addi	r2,fp,-44
   20d74:	e0bff315 	stw	r2,-52(fp)

	FILE *fpt;

	/* Initialization of JPEG control structure */
	initialization(jpeg_encoder_structure, image_width, image_height);
   20d78:	e13ff317 	ldw	r4,-52(fp)
   20d7c:	e17ffe17 	ldw	r5,-8(fp)
   20d80:	e1bfff17 	ldw	r6,-4(fp)
   20d84:	0020b580 	call	20b58 <initialization>
	// SEND5(image_height);
	// SEND5((jpeg_encoder_structure->vertical_mcus) * (jpeg_encoder_structure->horizontal_mcus));

	// asm("dummy");

	fpt = fopen(input_file_name, "rb");
   20d88:	e13ffc17 	ldw	r4,-16(fp)
   20d8c:	014000f4 	movhi	r5,3
   20d90:	2979d804 	addi	r5,r5,-6304
   20d94:	00217c00 	call	217c0 <fopen>
   20d98:	e0bff415 	stw	r2,-48(fp)
	if (fpt == NULL)
   20d9c:	e0bff417 	ldw	r2,-48(fp)
   20da0:	10000d1e 	bne	r2,zero,20dd8 <encode_image+0x88>
	{
		fprintf(stderr, "Error opening input file: %s\n", input_file_name);
   20da4:	008000f4 	movhi	r2,3
   20da8:	10815204 	addi	r2,r2,1352
   20dac:	10800017 	ldw	r2,0(r2)
   20db0:	10800317 	ldw	r2,12(r2)
   20db4:	1009883a 	mov	r4,r2
   20db8:	014000f4 	movhi	r5,3
   20dbc:	2979d904 	addi	r5,r5,-6300
   20dc0:	e1bffc17 	ldw	r6,-16(fp)
   20dc4:	00218040 	call	21804 <fprintf>
		fclose(fpt);
   20dc8:	e13ff417 	ldw	r4,-48(fp)
   20dcc:	00211780 	call	21178 <fclose>

		return 1;
   20dd0:	00800044 	movi	r2,1
   20dd4:	00007c06 	br	20fc8 <encode_image+0x278>
	}

	UINT8 *input = (UINT8 *)malloc(((jpeg_encoder_structure->mcu_height * image_width * 3) + 1) * sizeof(UINT8));
   20dd8:	e0bff317 	ldw	r2,-52(fp)
   20ddc:	1080008b 	ldhu	r2,2(r2)
   20de0:	10bfffcc 	andi	r2,r2,65535
   20de4:	1009883a 	mov	r4,r2
   20de8:	e17ffe17 	ldw	r5,-8(fp)
   20dec:	00210140 	call	21014 <__mulsi3>
   20df0:	1007883a 	mov	r3,r2
   20df4:	1805883a 	mov	r2,r3
   20df8:	1085883a 	add	r2,r2,r2
   20dfc:	10c5883a 	add	r2,r2,r3
   20e00:	10800044 	addi	r2,r2,1
   20e04:	1009883a 	mov	r4,r2
   20e08:	00227a80 	call	227a8 <malloc>
   20e0c:	e0bff215 	stw	r2,-56(fp)
	if (input == NULL)
   20e10:	e0bff217 	ldw	r2,-56(fp)
   20e14:	1000101e 	bne	r2,zero,20e58 <encode_image+0x108>
	{
		fprintf(stderr, "Memory allocation failed\n");
   20e18:	008000f4 	movhi	r2,3
   20e1c:	10815204 	addi	r2,r2,1352
   20e20:	10800017 	ldw	r2,0(r2)
   20e24:	10800317 	ldw	r2,12(r2)
   20e28:	010000f4 	movhi	r4,3
   20e2c:	2139e104 	addi	r4,r4,-6268
   20e30:	01400044 	movi	r5,1
   20e34:	01800644 	movi	r6,25
   20e38:	100f883a 	mov	r7,r2
   20e3c:	00225c00 	call	225c0 <fwrite>
		fclose(fpt);
   20e40:	e13ff417 	ldw	r4,-48(fp)
   20e44:	00211780 	call	21178 <fclose>
		free(input);
   20e48:	e13ff217 	ldw	r4,-56(fp)
   20e4c:	00227bc0 	call	227bc <free>

		return 1;
   20e50:	00800044 	movi	r2,1
   20e54:	00005c06 	br	20fc8 <encode_image+0x278>
	}

	for (i = 1; i <= jpeg_encoder_structure->vertical_mcus; i++)
   20e58:	00800044 	movi	r2,1
   20e5c:	e0bff10d 	sth	r2,-60(fp)
   20e60:	00004f06 	br	20fa0 <encode_image+0x250>
	{
		printf("Input image data (hex): %d\n", i);
   20e64:	e0bff10b 	ldhu	r2,-60(fp)
   20e68:	010000f4 	movhi	r4,3
   20e6c:	2139e804 	addi	r4,r4,-6240
   20e70:	100b883a 	mov	r5,r2
   20e74:	00232080 	call	23208 <printf>

		if (i < jpeg_encoder_structure->vertical_mcus)
   20e78:	e0bff317 	ldw	r2,-52(fp)
   20e7c:	1080018b 	ldhu	r2,6(r2)
   20e80:	10bfffcc 	andi	r2,r2,65535
   20e84:	e0fff10b 	ldhu	r3,-60(fp)
   20e88:	1880052e 	bgeu	r3,r2,20ea0 <encode_image+0x150>
			jpeg_encoder_structure->rows = jpeg_encoder_structure->mcu_height;
   20e8c:	e0bff317 	ldw	r2,-52(fp)
   20e90:	10c0008b 	ldhu	r3,2(r2)
   20e94:	e0bff317 	ldw	r2,-52(fp)
   20e98:	10c0030d 	sth	r3,12(r2)
   20e9c:	00000406 	br	20eb0 <encode_image+0x160>
		else
			jpeg_encoder_structure->rows = jpeg_encoder_structure->rows_in_bottom_mcus;
   20ea0:	e0bff317 	ldw	r2,-52(fp)
   20ea4:	10c0028b 	ldhu	r3,10(r2)
   20ea8:	e0bff317 	ldw	r2,-52(fp)
   20eac:	10c0030d 	sth	r3,12(r2)

		fread(input, 1, (jpeg_encoder_structure->rows * image_width * 3), fpt);
   20eb0:	e0bff317 	ldw	r2,-52(fp)
   20eb4:	1080030b 	ldhu	r2,12(r2)
   20eb8:	10bfffcc 	andi	r2,r2,65535
   20ebc:	1009883a 	mov	r4,r2
   20ec0:	e17ffe17 	ldw	r5,-8(fp)
   20ec4:	00210140 	call	21014 <__mulsi3>
   20ec8:	1007883a 	mov	r3,r2
   20ecc:	1805883a 	mov	r2,r3
   20ed0:	1085883a 	add	r2,r2,r2
   20ed4:	10c5883a 	add	r2,r2,r3
   20ed8:	e13ff217 	ldw	r4,-56(fp)
   20edc:	01400044 	movi	r5,1
   20ee0:	100d883a 	mov	r6,r2
   20ee4:	e1fff417 	ldw	r7,-48(fp)
   20ee8:	0021a640 	call	21a64 <fread>

		for (j = 1; j <= jpeg_encoder_structure->horizontal_mcus; j++)
   20eec:	00800044 	movi	r2,1
   20ef0:	e0bff18d 	sth	r2,-58(fp)
   20ef4:	00002206 	br	20f80 <encode_image+0x230>
		{
			if (j < jpeg_encoder_structure->horizontal_mcus)
   20ef8:	e0bff317 	ldw	r2,-52(fp)
   20efc:	1080010b 	ldhu	r2,4(r2)
   20f00:	10bfffcc 	andi	r2,r2,65535
   20f04:	e0fff18b 	ldhu	r3,-58(fp)
   20f08:	1880092e 	bgeu	r3,r2,20f30 <encode_image+0x1e0>
			{
				jpeg_encoder_structure->cols = jpeg_encoder_structure->mcu_width;
   20f0c:	e0bff317 	ldw	r2,-52(fp)
   20f10:	10c0000b 	ldhu	r3,0(r2)
   20f14:	e0bff317 	ldw	r2,-52(fp)
   20f18:	10c0038d 	sth	r3,14(r2)
				jpeg_encoder_structure->incr = jpeg_encoder_structure->length_minus_mcu_width;
   20f1c:	e0bff317 	ldw	r2,-52(fp)
   20f20:	10c0040b 	ldhu	r3,16(r2)
   20f24:	e0bff317 	ldw	r2,-52(fp)
   20f28:	10c0050d 	sth	r3,20(r2)
   20f2c:	00000806 	br	20f50 <encode_image+0x200>
			}
			else
			{
				jpeg_encoder_structure->cols = jpeg_encoder_structure->cols_in_right_mcus;
   20f30:	e0bff317 	ldw	r2,-52(fp)
   20f34:	10c0020b 	ldhu	r3,8(r2)
   20f38:	e0bff317 	ldw	r2,-52(fp)
   20f3c:	10c0038d 	sth	r3,14(r2)
				jpeg_encoder_structure->incr = jpeg_encoder_structure->length_minus_width;
   20f40:	e0bff317 	ldw	r2,-52(fp)
   20f44:	10c0048b 	ldhu	r3,18(r2)
   20f48:	e0bff317 	ldw	r2,-52(fp)
   20f4c:	10c0050d 	sth	r3,20(r2)
			}

			read_444_format(jpeg_encoder_structure, input);
   20f50:	e13ff317 	ldw	r4,-52(fp)
   20f54:	e17ff217 	ldw	r5,-56(fp)
   20f58:	00202f80 	call	202f8 <read_444_format>

			input += jpeg_encoder_structure->mcu_width_size;
   20f5c:	e0bff317 	ldw	r2,-52(fp)
   20f60:	1080058b 	ldhu	r2,22(r2)
   20f64:	10bfffcc 	andi	r2,r2,65535
   20f68:	e0fff217 	ldw	r3,-56(fp)
   20f6c:	1885883a 	add	r2,r3,r2
   20f70:	e0bff215 	stw	r2,-56(fp)
		else
			jpeg_encoder_structure->rows = jpeg_encoder_structure->rows_in_bottom_mcus;

		fread(input, 1, (jpeg_encoder_structure->rows * image_width * 3), fpt);

		for (j = 1; j <= jpeg_encoder_structure->horizontal_mcus; j++)
   20f74:	e0bff18b 	ldhu	r2,-58(fp)
   20f78:	10800044 	addi	r2,r2,1
   20f7c:	e0bff18d 	sth	r2,-58(fp)
   20f80:	e0bff317 	ldw	r2,-52(fp)
   20f84:	1080010b 	ldhu	r2,4(r2)
   20f88:	10ffffcc 	andi	r3,r2,65535
   20f8c:	e0bff18b 	ldhu	r2,-58(fp)
   20f90:	18bfd92e 	bgeu	r3,r2,20ef8 <encode_image+0x1a8>
		free(input);

		return 1;
	}

	for (i = 1; i <= jpeg_encoder_structure->vertical_mcus; i++)
   20f94:	e0bff10b 	ldhu	r2,-60(fp)
   20f98:	10800044 	addi	r2,r2,1
   20f9c:	e0bff10d 	sth	r2,-60(fp)
   20fa0:	e0bff317 	ldw	r2,-52(fp)
   20fa4:	1080018b 	ldhu	r2,6(r2)
   20fa8:	10ffffcc 	andi	r3,r2,65535
   20fac:	e0bff10b 	ldhu	r2,-60(fp)
   20fb0:	18bfac2e 	bgeu	r3,r2,20e64 <encode_image+0x114>

			input += jpeg_encoder_structure->mcu_width_size;
		}
	}

	fclose(fpt);
   20fb4:	e13ff417 	ldw	r4,-48(fp)
   20fb8:	00211780 	call	21178 <fclose>
	free(input);
   20fbc:	e13ff217 	ldw	r4,-56(fp)
   20fc0:	00227bc0 	call	227bc <free>

	return 0;
   20fc4:	0005883a 	mov	r2,zero
}
   20fc8:	e037883a 	mov	sp,fp
   20fcc:	dfc00117 	ldw	ra,4(sp)
   20fd0:	df000017 	ldw	fp,0(sp)
   20fd4:	dec00204 	addi	sp,sp,8
   20fd8:	f800283a 	ret

00020fdc <main>:
#include "FIFO.h"

// void delay(int n);

int main(int argc, char *argv[])
{
   20fdc:	deffd604 	addi	sp,sp,-168
   20fe0:	dfc02915 	stw	ra,164(sp)
   20fe4:	df002815 	stw	fp,160(sp)
   20fe8:	df002804 	addi	fp,sp,160
   20fec:	e13ffe15 	stw	r4,-8(fp)
   20ff0:	e17fff15 	stw	r5,-4(fp)
	// FIFO_INIT(CONTROL_BASE_1to2B);
	// delay(100000);
	// FIFO_INIT(CONTROL_BASE_1to2C);
	// delay(100000);

	printf("Starting the program\n");
   20ff4:	010000f4 	movhi	r4,3
   20ff8:	2139ef04 	addi	r4,r4,-6212
   20ffc:	00232c80 	call	232c8 <puts>

	// fclose(fp);
	// printf("\nDone!\n");

	// return 0;
}
   21000:	e037883a 	mov	sp,fp
   21004:	dfc00117 	ldw	ra,4(sp)
   21008:	df000017 	ldw	fp,0(sp)
   2100c:	dec00204 	addi	sp,sp,8
   21010:	f800283a 	ret

00021014 <__mulsi3>:
   21014:	0005883a 	mov	r2,zero
   21018:	20000726 	beq	r4,zero,21038 <__mulsi3+0x24>
   2101c:	20c0004c 	andi	r3,r4,1
   21020:	2008d07a 	srli	r4,r4,1
   21024:	18000126 	beq	r3,zero,2102c <__mulsi3+0x18>
   21028:	1145883a 	add	r2,r2,r5
   2102c:	294b883a 	add	r5,r5,r5
   21030:	203ffa1e 	bne	r4,zero,2101c <__mulsi3+0x8>
   21034:	f800283a 	ret
   21038:	f800283a 	ret

0002103c <_fclose_r>:
   2103c:	defffc04 	addi	sp,sp,-16
   21040:	dc400115 	stw	r17,4(sp)
   21044:	dc000015 	stw	r16,0(sp)
   21048:	dfc00315 	stw	ra,12(sp)
   2104c:	dc800215 	stw	r18,8(sp)
   21050:	2821883a 	mov	r16,r5
   21054:	2023883a 	mov	r17,r4
   21058:	28003426 	beq	r5,zero,2112c <_fclose_r+0xf0>
   2105c:	00216500 	call	21650 <__sfp_lock_acquire>
   21060:	88000226 	beq	r17,zero,2106c <_fclose_r+0x30>
   21064:	88800e17 	ldw	r2,56(r17)
   21068:	10003826 	beq	r2,zero,2114c <_fclose_r+0x110>
   2106c:	8080030f 	ldh	r2,12(r16)
   21070:	10002526 	beq	r2,zero,21108 <_fclose_r+0xcc>
   21074:	8809883a 	mov	r4,r17
   21078:	800b883a 	mov	r5,r16
   2107c:	002118c0 	call	2118c <_fflush_r>
   21080:	1025883a 	mov	r18,r2
   21084:	80800b17 	ldw	r2,44(r16)
   21088:	10000426 	beq	r2,zero,2109c <_fclose_r+0x60>
   2108c:	81400717 	ldw	r5,28(r16)
   21090:	8809883a 	mov	r4,r17
   21094:	103ee83a 	callr	r2
   21098:	10003516 	blt	r2,zero,21170 <_fclose_r+0x134>
   2109c:	8080030b 	ldhu	r2,12(r16)
   210a0:	1080200c 	andi	r2,r2,128
   210a4:	10bfffcc 	andi	r2,r2,65535
   210a8:	10a0001c 	xori	r2,r2,32768
   210ac:	10a00004 	addi	r2,r2,-32768
   210b0:	10002b1e 	bne	r2,zero,21160 <_fclose_r+0x124>
   210b4:	81400c17 	ldw	r5,48(r16)
   210b8:	28000526 	beq	r5,zero,210d0 <_fclose_r+0x94>
   210bc:	80801004 	addi	r2,r16,64
   210c0:	28800226 	beq	r5,r2,210cc <_fclose_r+0x90>
   210c4:	8809883a 	mov	r4,r17
   210c8:	0021be00 	call	21be0 <_free_r>
   210cc:	80000c15 	stw	zero,48(r16)
   210d0:	81401117 	ldw	r5,68(r16)
   210d4:	28000326 	beq	r5,zero,210e4 <_fclose_r+0xa8>
   210d8:	8809883a 	mov	r4,r17
   210dc:	0021be00 	call	21be0 <_free_r>
   210e0:	80001115 	stw	zero,68(r16)
   210e4:	8000030d 	sth	zero,12(r16)
   210e8:	00216540 	call	21654 <__sfp_lock_release>
   210ec:	9005883a 	mov	r2,r18
   210f0:	dfc00317 	ldw	ra,12(sp)
   210f4:	dc800217 	ldw	r18,8(sp)
   210f8:	dc400117 	ldw	r17,4(sp)
   210fc:	dc000017 	ldw	r16,0(sp)
   21100:	dec00404 	addi	sp,sp,16
   21104:	f800283a 	ret
   21108:	00216540 	call	21654 <__sfp_lock_release>
   2110c:	0025883a 	mov	r18,zero
   21110:	9005883a 	mov	r2,r18
   21114:	dfc00317 	ldw	ra,12(sp)
   21118:	dc800217 	ldw	r18,8(sp)
   2111c:	dc400117 	ldw	r17,4(sp)
   21120:	dc000017 	ldw	r16,0(sp)
   21124:	dec00404 	addi	sp,sp,16
   21128:	f800283a 	ret
   2112c:	0025883a 	mov	r18,zero
   21130:	9005883a 	mov	r2,r18
   21134:	dfc00317 	ldw	ra,12(sp)
   21138:	dc800217 	ldw	r18,8(sp)
   2113c:	dc400117 	ldw	r17,4(sp)
   21140:	dc000017 	ldw	r16,0(sp)
   21144:	dec00404 	addi	sp,sp,16
   21148:	f800283a 	ret
   2114c:	8809883a 	mov	r4,r17
   21150:	00214480 	call	21448 <__sinit>
   21154:	8080030f 	ldh	r2,12(r16)
   21158:	103fc61e 	bne	r2,zero,21074 <_fclose_r+0x38>
   2115c:	003fea06 	br	21108 <_fclose_r+0xcc>
   21160:	81400417 	ldw	r5,16(r16)
   21164:	8809883a 	mov	r4,r17
   21168:	0021be00 	call	21be0 <_free_r>
   2116c:	003fd106 	br	210b4 <_fclose_r+0x78>
   21170:	04bfffc4 	movi	r18,-1
   21174:	003fc906 	br	2109c <_fclose_r+0x60>

00021178 <fclose>:
   21178:	008000f4 	movhi	r2,3
   2117c:	10815204 	addi	r2,r2,1352
   21180:	200b883a 	mov	r5,r4
   21184:	11000017 	ldw	r4,0(r2)
   21188:	002103c1 	jmpi	2103c <_fclose_r>

0002118c <_fflush_r>:
   2118c:	defffb04 	addi	sp,sp,-20
   21190:	dcc00315 	stw	r19,12(sp)
   21194:	dc400115 	stw	r17,4(sp)
   21198:	dfc00415 	stw	ra,16(sp)
   2119c:	dc800215 	stw	r18,8(sp)
   211a0:	dc000015 	stw	r16,0(sp)
   211a4:	2027883a 	mov	r19,r4
   211a8:	2823883a 	mov	r17,r5
   211ac:	20000226 	beq	r4,zero,211b8 <_fflush_r+0x2c>
   211b0:	20800e17 	ldw	r2,56(r4)
   211b4:	10005726 	beq	r2,zero,21314 <_fflush_r+0x188>
   211b8:	8880030b 	ldhu	r2,12(r17)
   211bc:	10c0020c 	andi	r3,r2,8
   211c0:	18ffffcc 	andi	r3,r3,65535
   211c4:	18e0001c 	xori	r3,r3,32768
   211c8:	18e00004 	addi	r3,r3,-32768
   211cc:	1800311e 	bne	r3,zero,21294 <_fflush_r+0x108>
   211d0:	89000117 	ldw	r4,4(r17)
   211d4:	10c20014 	ori	r3,r2,2048
   211d8:	88c0030d 	sth	r3,12(r17)
   211dc:	180b883a 	mov	r5,r3
   211e0:	0100520e 	bge	zero,r4,2132c <_fflush_r+0x1a0>
   211e4:	88c00a17 	ldw	r3,40(r17)
   211e8:	18002226 	beq	r3,zero,21274 <_fflush_r+0xe8>
   211ec:	1084000c 	andi	r2,r2,4096
   211f0:	10bfffcc 	andi	r2,r2,65535
   211f4:	10a0001c 	xori	r2,r2,32768
   211f8:	10a00004 	addi	r2,r2,-32768
   211fc:	10004e26 	beq	r2,zero,21338 <_fflush_r+0x1ac>
   21200:	8c001417 	ldw	r16,80(r17)
   21204:	2940010c 	andi	r5,r5,4
   21208:	297fffcc 	andi	r5,r5,65535
   2120c:	2960001c 	xori	r5,r5,32768
   21210:	29600004 	addi	r5,r5,-32768
   21214:	28000626 	beq	r5,zero,21230 <_fflush_r+0xa4>
   21218:	89000117 	ldw	r4,4(r17)
   2121c:	88800c17 	ldw	r2,48(r17)
   21220:	8121c83a 	sub	r16,r16,r4
   21224:	10000226 	beq	r2,zero,21230 <_fflush_r+0xa4>
   21228:	88800f17 	ldw	r2,60(r17)
   2122c:	80a1c83a 	sub	r16,r16,r2
   21230:	89400717 	ldw	r5,28(r17)
   21234:	9809883a 	mov	r4,r19
   21238:	800d883a 	mov	r6,r16
   2123c:	000f883a 	mov	r7,zero
   21240:	183ee83a 	callr	r3
   21244:	8080281e 	bne	r16,r2,212e8 <_fflush_r+0x15c>
   21248:	8880030b 	ldhu	r2,12(r17)
   2124c:	88c00417 	ldw	r3,16(r17)
   21250:	88000115 	stw	zero,4(r17)
   21254:	113dffcc 	andi	r4,r2,63487
   21258:	1084000c 	andi	r2,r2,4096
   2125c:	10bfffcc 	andi	r2,r2,65535
   21260:	10a0001c 	xori	r2,r2,32768
   21264:	8900030d 	sth	r4,12(r17)
   21268:	88c00015 	stw	r3,0(r17)
   2126c:	10a00004 	addi	r2,r2,-32768
   21270:	10002c1e 	bne	r2,zero,21324 <_fflush_r+0x198>
   21274:	0005883a 	mov	r2,zero
   21278:	dfc00417 	ldw	ra,16(sp)
   2127c:	dcc00317 	ldw	r19,12(sp)
   21280:	dc800217 	ldw	r18,8(sp)
   21284:	dc400117 	ldw	r17,4(sp)
   21288:	dc000017 	ldw	r16,0(sp)
   2128c:	dec00504 	addi	sp,sp,20
   21290:	f800283a 	ret
   21294:	8c800417 	ldw	r18,16(r17)
   21298:	903ff626 	beq	r18,zero,21274 <_fflush_r+0xe8>
   2129c:	8c000017 	ldw	r16,0(r17)
   212a0:	108000cc 	andi	r2,r2,3
   212a4:	8c800015 	stw	r18,0(r17)
   212a8:	84a1c83a 	sub	r16,r16,r18
   212ac:	10001b1e 	bne	r2,zero,2131c <_fflush_r+0x190>
   212b0:	88800517 	ldw	r2,20(r17)
   212b4:	88800215 	stw	r2,8(r17)
   212b8:	04000316 	blt	zero,r16,212c8 <_fflush_r+0x13c>
   212bc:	003fed06 	br	21274 <_fflush_r+0xe8>
   212c0:	90a5883a 	add	r18,r18,r2
   212c4:	043feb0e 	bge	zero,r16,21274 <_fflush_r+0xe8>
   212c8:	88800917 	ldw	r2,36(r17)
   212cc:	89400717 	ldw	r5,28(r17)
   212d0:	800f883a 	mov	r7,r16
   212d4:	900d883a 	mov	r6,r18
   212d8:	9809883a 	mov	r4,r19
   212dc:	103ee83a 	callr	r2
   212e0:	80a1c83a 	sub	r16,r16,r2
   212e4:	00bff616 	blt	zero,r2,212c0 <_fflush_r+0x134>
   212e8:	88c0030b 	ldhu	r3,12(r17)
   212ec:	00bfffc4 	movi	r2,-1
   212f0:	18c01014 	ori	r3,r3,64
   212f4:	88c0030d 	sth	r3,12(r17)
   212f8:	dfc00417 	ldw	ra,16(sp)
   212fc:	dcc00317 	ldw	r19,12(sp)
   21300:	dc800217 	ldw	r18,8(sp)
   21304:	dc400117 	ldw	r17,4(sp)
   21308:	dc000017 	ldw	r16,0(sp)
   2130c:	dec00504 	addi	sp,sp,20
   21310:	f800283a 	ret
   21314:	00214480 	call	21448 <__sinit>
   21318:	003fa706 	br	211b8 <_fflush_r+0x2c>
   2131c:	0005883a 	mov	r2,zero
   21320:	003fe406 	br	212b4 <_fflush_r+0x128>
   21324:	8c001415 	stw	r16,80(r17)
   21328:	003fd206 	br	21274 <_fflush_r+0xe8>
   2132c:	88c00f17 	ldw	r3,60(r17)
   21330:	00ffac16 	blt	zero,r3,211e4 <_fflush_r+0x58>
   21334:	003fcf06 	br	21274 <_fflush_r+0xe8>
   21338:	89400717 	ldw	r5,28(r17)
   2133c:	9809883a 	mov	r4,r19
   21340:	000d883a 	mov	r6,zero
   21344:	01c00044 	movi	r7,1
   21348:	183ee83a 	callr	r3
   2134c:	1021883a 	mov	r16,r2
   21350:	00bfffc4 	movi	r2,-1
   21354:	80800326 	beq	r16,r2,21364 <_fflush_r+0x1d8>
   21358:	8940030b 	ldhu	r5,12(r17)
   2135c:	88c00a17 	ldw	r3,40(r17)
   21360:	003fa806 	br	21204 <_fflush_r+0x78>
   21364:	98c00017 	ldw	r3,0(r19)
   21368:	00800744 	movi	r2,29
   2136c:	18bfde1e 	bne	r3,r2,212e8 <_fflush_r+0x15c>
   21370:	003fc006 	br	21274 <_fflush_r+0xe8>

00021374 <fflush>:
   21374:	200b883a 	mov	r5,r4
   21378:	20000426 	beq	r4,zero,2138c <fflush+0x18>
   2137c:	008000f4 	movhi	r2,3
   21380:	10815204 	addi	r2,r2,1352
   21384:	11000017 	ldw	r4,0(r2)
   21388:	002118c1 	jmpi	2118c <_fflush_r>
   2138c:	008000f4 	movhi	r2,3
   21390:	10815104 	addi	r2,r2,1348
   21394:	11000017 	ldw	r4,0(r2)
   21398:	014000b4 	movhi	r5,2
   2139c:	29446304 	addi	r5,r5,4492
   213a0:	00224581 	jmpi	22458 <_fwalk_reent>

000213a4 <__fp_lock>:
   213a4:	0005883a 	mov	r2,zero
   213a8:	f800283a 	ret

000213ac <__fp_unlock>:
   213ac:	0005883a 	mov	r2,zero
   213b0:	f800283a 	ret

000213b4 <_cleanup_r>:
   213b4:	014000b4 	movhi	r5,2
   213b8:	29445e04 	addi	r5,r5,4472
   213bc:	00223b01 	jmpi	223b0 <_fwalk>

000213c0 <__sfmoreglue>:
   213c0:	defffc04 	addi	sp,sp,-16
   213c4:	dc800215 	stw	r18,8(sp)
   213c8:	2825883a 	mov	r18,r5
   213cc:	dc000015 	stw	r16,0(sp)
   213d0:	01401704 	movi	r5,92
   213d4:	2021883a 	mov	r16,r4
   213d8:	9009883a 	mov	r4,r18
   213dc:	dfc00315 	stw	ra,12(sp)
   213e0:	dc400115 	stw	r17,4(sp)
   213e4:	00210140 	call	21014 <__mulsi3>
   213e8:	8009883a 	mov	r4,r16
   213ec:	11400304 	addi	r5,r2,12
   213f0:	1023883a 	mov	r17,r2
   213f4:	00227d00 	call	227d0 <_malloc_r>
   213f8:	1021883a 	mov	r16,r2
   213fc:	10000726 	beq	r2,zero,2141c <__sfmoreglue+0x5c>
   21400:	11000304 	addi	r4,r2,12
   21404:	10000015 	stw	zero,0(r2)
   21408:	14800115 	stw	r18,4(r2)
   2140c:	11000215 	stw	r4,8(r2)
   21410:	000b883a 	mov	r5,zero
   21414:	880d883a 	mov	r6,r17
   21418:	00230940 	call	23094 <memset>
   2141c:	8005883a 	mov	r2,r16
   21420:	dfc00317 	ldw	ra,12(sp)
   21424:	dc800217 	ldw	r18,8(sp)
   21428:	dc400117 	ldw	r17,4(sp)
   2142c:	dc000017 	ldw	r16,0(sp)
   21430:	dec00404 	addi	sp,sp,16
   21434:	f800283a 	ret

00021438 <_cleanup>:
   21438:	008000f4 	movhi	r2,3
   2143c:	10815104 	addi	r2,r2,1348
   21440:	11000017 	ldw	r4,0(r2)
   21444:	00213b41 	jmpi	213b4 <_cleanup_r>

00021448 <__sinit>:
   21448:	20800e17 	ldw	r2,56(r4)
   2144c:	1000401e 	bne	r2,zero,21550 <__sinit+0x108>
   21450:	21400117 	ldw	r5,4(r4)
   21454:	018000b4 	movhi	r6,2
   21458:	3184ed04 	addi	r6,r6,5044
   2145c:	20c00217 	ldw	r3,8(r4)
   21460:	21800f15 	stw	r6,60(r4)
   21464:	2080bb04 	addi	r2,r4,748
   21468:	02400044 	movi	r9,1
   2146c:	018000c4 	movi	r6,3
   21470:	2180b915 	stw	r6,740(r4)
   21474:	2080ba15 	stw	r2,744(r4)
   21478:	22400e15 	stw	r9,56(r4)
   2147c:	20800317 	ldw	r2,12(r4)
   21480:	2000b815 	stw	zero,736(r4)
   21484:	020000b4 	movhi	r8,2
   21488:	420d5204 	addi	r8,r8,13640
   2148c:	01c000b4 	movhi	r7,2
   21490:	39cd6704 	addi	r7,r7,13724
   21494:	018000b4 	movhi	r6,2
   21498:	318d8904 	addi	r6,r6,13860
   2149c:	010000b4 	movhi	r4,2
   214a0:	210da004 	addi	r4,r4,13952
   214a4:	02800104 	movi	r10,4
   214a8:	28000015 	stw	zero,0(r5)
   214ac:	28000115 	stw	zero,4(r5)
   214b0:	28000215 	stw	zero,8(r5)
   214b4:	2a80030d 	sth	r10,12(r5)
   214b8:	2800038d 	sth	zero,14(r5)
   214bc:	28000415 	stw	zero,16(r5)
   214c0:	28000515 	stw	zero,20(r5)
   214c4:	28000615 	stw	zero,24(r5)
   214c8:	29400715 	stw	r5,28(r5)
   214cc:	2a000815 	stw	r8,32(r5)
   214d0:	29c00915 	stw	r7,36(r5)
   214d4:	29800a15 	stw	r6,40(r5)
   214d8:	29000b15 	stw	r4,44(r5)
   214dc:	01400284 	movi	r5,10
   214e0:	18000015 	stw	zero,0(r3)
   214e4:	18000115 	stw	zero,4(r3)
   214e8:	18000215 	stw	zero,8(r3)
   214ec:	1940030d 	sth	r5,12(r3)
   214f0:	1a40038d 	sth	r9,14(r3)
   214f4:	18000415 	stw	zero,16(r3)
   214f8:	18000515 	stw	zero,20(r3)
   214fc:	18000615 	stw	zero,24(r3)
   21500:	18c00715 	stw	r3,28(r3)
   21504:	1a000815 	stw	r8,32(r3)
   21508:	19c00915 	stw	r7,36(r3)
   2150c:	19800a15 	stw	r6,40(r3)
   21510:	19000b15 	stw	r4,44(r3)
   21514:	00c00484 	movi	r3,18
   21518:	10c0030d 	sth	r3,12(r2)
   2151c:	00c00084 	movi	r3,2
   21520:	10000015 	stw	zero,0(r2)
   21524:	10000115 	stw	zero,4(r2)
   21528:	10000215 	stw	zero,8(r2)
   2152c:	10c0038d 	sth	r3,14(r2)
   21530:	10000415 	stw	zero,16(r2)
   21534:	10000515 	stw	zero,20(r2)
   21538:	10000615 	stw	zero,24(r2)
   2153c:	10800715 	stw	r2,28(r2)
   21540:	12000815 	stw	r8,32(r2)
   21544:	11c00915 	stw	r7,36(r2)
   21548:	11800a15 	stw	r6,40(r2)
   2154c:	11000b15 	stw	r4,44(r2)
   21550:	f800283a 	ret

00021554 <__sfp>:
   21554:	defffc04 	addi	sp,sp,-16
   21558:	008000f4 	movhi	r2,3
   2155c:	10815104 	addi	r2,r2,1348
   21560:	dc400115 	stw	r17,4(sp)
   21564:	14400017 	ldw	r17,0(r2)
   21568:	dc800215 	stw	r18,8(sp)
   2156c:	dfc00315 	stw	ra,12(sp)
   21570:	88800e17 	ldw	r2,56(r17)
   21574:	dc000015 	stw	r16,0(sp)
   21578:	2025883a 	mov	r18,r4
   2157c:	10002826 	beq	r2,zero,21620 <__sfp+0xcc>
   21580:	8c40b804 	addi	r17,r17,736
   21584:	043fffc4 	movi	r16,-1
   21588:	89400117 	ldw	r5,4(r17)
   2158c:	88800217 	ldw	r2,8(r17)
   21590:	297fffc4 	addi	r5,r5,-1
   21594:	28000a16 	blt	r5,zero,215c0 <__sfp+0x6c>
   21598:	10c0030f 	ldh	r3,12(r2)
   2159c:	18000c26 	beq	r3,zero,215d0 <__sfp+0x7c>
   215a0:	10c01a04 	addi	r3,r2,104
   215a4:	00000206 	br	215b0 <__sfp+0x5c>
   215a8:	19bfe90f 	ldh	r6,-92(r3)
   215ac:	30000826 	beq	r6,zero,215d0 <__sfp+0x7c>
   215b0:	297fffc4 	addi	r5,r5,-1
   215b4:	18bffd04 	addi	r2,r3,-12
   215b8:	18c01704 	addi	r3,r3,92
   215bc:	2c3ffa1e 	bne	r5,r16,215a8 <__sfp+0x54>
   215c0:	88800017 	ldw	r2,0(r17)
   215c4:	10001926 	beq	r2,zero,2162c <__sfp+0xd8>
   215c8:	1023883a 	mov	r17,r2
   215cc:	003fee06 	br	21588 <__sfp+0x34>
   215d0:	00ffffc4 	movi	r3,-1
   215d4:	10c0038d 	sth	r3,14(r2)
   215d8:	00c00044 	movi	r3,1
   215dc:	10c0030d 	sth	r3,12(r2)
   215e0:	10000015 	stw	zero,0(r2)
   215e4:	10000215 	stw	zero,8(r2)
   215e8:	10000115 	stw	zero,4(r2)
   215ec:	10000415 	stw	zero,16(r2)
   215f0:	10000515 	stw	zero,20(r2)
   215f4:	10000615 	stw	zero,24(r2)
   215f8:	10000c15 	stw	zero,48(r2)
   215fc:	10000d15 	stw	zero,52(r2)
   21600:	10001115 	stw	zero,68(r2)
   21604:	10001215 	stw	zero,72(r2)
   21608:	dfc00317 	ldw	ra,12(sp)
   2160c:	dc800217 	ldw	r18,8(sp)
   21610:	dc400117 	ldw	r17,4(sp)
   21614:	dc000017 	ldw	r16,0(sp)
   21618:	dec00404 	addi	sp,sp,16
   2161c:	f800283a 	ret
   21620:	8809883a 	mov	r4,r17
   21624:	00214480 	call	21448 <__sinit>
   21628:	003fd506 	br	21580 <__sfp+0x2c>
   2162c:	9009883a 	mov	r4,r18
   21630:	01400104 	movi	r5,4
   21634:	00213c00 	call	213c0 <__sfmoreglue>
   21638:	88800015 	stw	r2,0(r17)
   2163c:	103fe21e 	bne	r2,zero,215c8 <__sfp+0x74>
   21640:	00800304 	movi	r2,12
   21644:	90800015 	stw	r2,0(r18)
   21648:	0005883a 	mov	r2,zero
   2164c:	003fee06 	br	21608 <__sfp+0xb4>

00021650 <__sfp_lock_acquire>:
   21650:	f800283a 	ret

00021654 <__sfp_lock_release>:
   21654:	f800283a 	ret

00021658 <__sinit_lock_acquire>:
   21658:	f800283a 	ret

0002165c <__sinit_lock_release>:
   2165c:	f800283a 	ret

00021660 <__fp_lock_all>:
   21660:	008000f4 	movhi	r2,3
   21664:	10815204 	addi	r2,r2,1352
   21668:	11000017 	ldw	r4,0(r2)
   2166c:	014000b4 	movhi	r5,2
   21670:	2944e904 	addi	r5,r5,5028
   21674:	00223b01 	jmpi	223b0 <_fwalk>

00021678 <__fp_unlock_all>:
   21678:	008000f4 	movhi	r2,3
   2167c:	10815204 	addi	r2,r2,1352
   21680:	11000017 	ldw	r4,0(r2)
   21684:	014000b4 	movhi	r5,2
   21688:	2944eb04 	addi	r5,r5,5036
   2168c:	00223b01 	jmpi	223b0 <_fwalk>

00021690 <_fopen_r>:
   21690:	defffa04 	addi	sp,sp,-24
   21694:	dcc00415 	stw	r19,16(sp)
   21698:	2827883a 	mov	r19,r5
   2169c:	300b883a 	mov	r5,r6
   216a0:	d80d883a 	mov	r6,sp
   216a4:	dc800315 	stw	r18,12(sp)
   216a8:	dc400215 	stw	r17,8(sp)
   216ac:	dfc00515 	stw	ra,20(sp)
   216b0:	dc000115 	stw	r16,4(sp)
   216b4:	2025883a 	mov	r18,r4
   216b8:	00270840 	call	27084 <__sflags>
   216bc:	1023883a 	mov	r17,r2
   216c0:	10002926 	beq	r2,zero,21768 <_fopen_r+0xd8>
   216c4:	9009883a 	mov	r4,r18
   216c8:	00215540 	call	21554 <__sfp>
   216cc:	1021883a 	mov	r16,r2
   216d0:	10002526 	beq	r2,zero,21768 <_fopen_r+0xd8>
   216d4:	d9800017 	ldw	r6,0(sp)
   216d8:	9009883a 	mov	r4,r18
   216dc:	980b883a 	mov	r5,r19
   216e0:	01c06d84 	movi	r7,438
   216e4:	00231700 	call	23170 <_open_r>
   216e8:	10001c16 	blt	r2,zero,2175c <_fopen_r+0xcc>
   216ec:	8080038d 	sth	r2,14(r16)
   216f0:	008000b4 	movhi	r2,2
   216f4:	108d5204 	addi	r2,r2,13640
   216f8:	80800815 	stw	r2,32(r16)
   216fc:	008000b4 	movhi	r2,2
   21700:	108d6704 	addi	r2,r2,13724
   21704:	80800915 	stw	r2,36(r16)
   21708:	008000b4 	movhi	r2,2
   2170c:	108d8904 	addi	r2,r2,13860
   21710:	88c0400c 	andi	r3,r17,256
   21714:	80800a15 	stw	r2,40(r16)
   21718:	008000b4 	movhi	r2,2
   2171c:	108da004 	addi	r2,r2,13952
   21720:	80800b15 	stw	r2,44(r16)
   21724:	18bfffcc 	andi	r2,r3,65535
   21728:	10a0001c 	xori	r2,r2,32768
   2172c:	8440030d 	sth	r17,12(r16)
   21730:	84000715 	stw	r16,28(r16)
   21734:	10a00004 	addi	r2,r2,-32768
   21738:	1000141e 	bne	r2,zero,2178c <_fopen_r+0xfc>
   2173c:	8005883a 	mov	r2,r16
   21740:	dfc00517 	ldw	ra,20(sp)
   21744:	dcc00417 	ldw	r19,16(sp)
   21748:	dc800317 	ldw	r18,12(sp)
   2174c:	dc400217 	ldw	r17,8(sp)
   21750:	dc000117 	ldw	r16,4(sp)
   21754:	dec00604 	addi	sp,sp,24
   21758:	f800283a 	ret
   2175c:	00216500 	call	21650 <__sfp_lock_acquire>
   21760:	8000030d 	sth	zero,12(r16)
   21764:	00216540 	call	21654 <__sfp_lock_release>
   21768:	0021883a 	mov	r16,zero
   2176c:	8005883a 	mov	r2,r16
   21770:	dfc00517 	ldw	ra,20(sp)
   21774:	dcc00417 	ldw	r19,16(sp)
   21778:	dc800317 	ldw	r18,12(sp)
   2177c:	dc400217 	ldw	r17,8(sp)
   21780:	dc000117 	ldw	r16,4(sp)
   21784:	dec00604 	addi	sp,sp,24
   21788:	f800283a 	ret
   2178c:	9009883a 	mov	r4,r18
   21790:	800b883a 	mov	r5,r16
   21794:	000d883a 	mov	r6,zero
   21798:	01c00084 	movi	r7,2
   2179c:	0021eb00 	call	21eb0 <_fseek_r>
   217a0:	8005883a 	mov	r2,r16
   217a4:	dfc00517 	ldw	ra,20(sp)
   217a8:	dcc00417 	ldw	r19,16(sp)
   217ac:	dc800317 	ldw	r18,12(sp)
   217b0:	dc400217 	ldw	r17,8(sp)
   217b4:	dc000117 	ldw	r16,4(sp)
   217b8:	dec00604 	addi	sp,sp,24
   217bc:	f800283a 	ret

000217c0 <fopen>:
   217c0:	00c000f4 	movhi	r3,3
   217c4:	18c15204 	addi	r3,r3,1352
   217c8:	2005883a 	mov	r2,r4
   217cc:	19000017 	ldw	r4,0(r3)
   217d0:	280d883a 	mov	r6,r5
   217d4:	100b883a 	mov	r5,r2
   217d8:	00216901 	jmpi	21690 <_fopen_r>

000217dc <_fprintf_r>:
   217dc:	defffe04 	addi	sp,sp,-8
   217e0:	2809883a 	mov	r4,r5
   217e4:	dfc00015 	stw	ra,0(sp)
   217e8:	d9c00115 	stw	r7,4(sp)
   217ec:	300b883a 	mov	r5,r6
   217f0:	d9800104 	addi	r6,sp,4
   217f4:	00255c40 	call	255c4 <__vfprintf_internal>
   217f8:	dfc00017 	ldw	ra,0(sp)
   217fc:	dec00204 	addi	sp,sp,8
   21800:	f800283a 	ret

00021804 <fprintf>:
   21804:	defffd04 	addi	sp,sp,-12
   21808:	dfc00015 	stw	ra,0(sp)
   2180c:	d9800115 	stw	r6,4(sp)
   21810:	d9c00215 	stw	r7,8(sp)
   21814:	d9800104 	addi	r6,sp,4
   21818:	00255c40 	call	255c4 <__vfprintf_internal>
   2181c:	dfc00017 	ldw	ra,0(sp)
   21820:	dec00304 	addi	sp,sp,12
   21824:	f800283a 	ret

00021828 <_fread_r>:
   21828:	defff504 	addi	sp,sp,-44
   2182c:	dd000515 	stw	r20,20(sp)
   21830:	dcc00415 	stw	r19,16(sp)
   21834:	2029883a 	mov	r20,r4
   21838:	2827883a 	mov	r19,r5
   2183c:	3809883a 	mov	r4,r7
   21840:	300b883a 	mov	r5,r6
   21844:	ddc00815 	stw	r23,32(sp)
   21848:	dd800715 	stw	r22,28(sp)
   2184c:	dd400615 	stw	r21,24(sp)
   21850:	dc000115 	stw	r16,4(sp)
   21854:	dfc00a15 	stw	ra,40(sp)
   21858:	df000915 	stw	fp,36(sp)
   2185c:	dc800315 	stw	r18,12(sp)
   21860:	dc400215 	stw	r17,8(sp)
   21864:	302f883a 	mov	r23,r6
   21868:	382b883a 	mov	r21,r7
   2186c:	00210140 	call	21014 <__mulsi3>
   21870:	102d883a 	mov	r22,r2
   21874:	dc000b17 	ldw	r16,44(sp)
   21878:	10002e26 	beq	r2,zero,21934 <_fread_r+0x10c>
   2187c:	a0000226 	beq	r20,zero,21888 <_fread_r+0x60>
   21880:	a0800e17 	ldw	r2,56(r20)
   21884:	10006726 	beq	r2,zero,21a24 <_fread_r+0x1fc>
   21888:	84400117 	ldw	r17,4(r16)
   2188c:	88002b16 	blt	r17,zero,2193c <_fread_r+0x114>
   21890:	8080030b 	ldhu	r2,12(r16)
   21894:	8807883a 	mov	r3,r17
   21898:	1080008c 	andi	r2,r2,2
   2189c:	10bfffcc 	andi	r2,r2,65535
   218a0:	10a0001c 	xori	r2,r2,32768
   218a4:	10a00004 	addi	r2,r2,-32768
   218a8:	10002d1e 	bne	r2,zero,21960 <_fread_r+0x138>
   218ac:	b025883a 	mov	r18,r22
   218b0:	00000106 	br	218b8 <_fread_r+0x90>
   218b4:	84400117 	ldw	r17,4(r16)
   218b8:	9809883a 	mov	r4,r19
   218bc:	880d883a 	mov	r6,r17
   218c0:	81400017 	ldw	r5,0(r16)
   218c4:	8c805c2e 	bgeu	r17,r18,21a38 <_fread_r+0x210>
   218c8:	0022f540 	call	22f54 <memcpy>
   218cc:	80800017 	ldw	r2,0(r16)
   218d0:	9c67883a 	add	r19,r19,r17
   218d4:	9465c83a 	sub	r18,r18,r17
   218d8:	1463883a 	add	r17,r2,r17
   218dc:	a009883a 	mov	r4,r20
   218e0:	800b883a 	mov	r5,r16
   218e4:	84400015 	stw	r17,0(r16)
   218e8:	00232f80 	call	232f8 <__srefill_r>
   218ec:	103ff126 	beq	r2,zero,218b4 <_fread_r+0x8c>
   218f0:	b489c83a 	sub	r4,r22,r18
   218f4:	b80b883a 	mov	r5,r23
   218f8:	002ad940 	call	2ad94 <__udivsi3>
   218fc:	102b883a 	mov	r21,r2
   21900:	a805883a 	mov	r2,r21
   21904:	dfc00a17 	ldw	ra,40(sp)
   21908:	df000917 	ldw	fp,36(sp)
   2190c:	ddc00817 	ldw	r23,32(sp)
   21910:	dd800717 	ldw	r22,28(sp)
   21914:	dd400617 	ldw	r21,24(sp)
   21918:	dd000517 	ldw	r20,20(sp)
   2191c:	dcc00417 	ldw	r19,16(sp)
   21920:	dc800317 	ldw	r18,12(sp)
   21924:	dc400217 	ldw	r17,8(sp)
   21928:	dc000117 	ldw	r16,4(sp)
   2192c:	dec00b04 	addi	sp,sp,44
   21930:	f800283a 	ret
   21934:	002b883a 	mov	r21,zero
   21938:	003ff106 	br	21900 <_fread_r+0xd8>
   2193c:	8080030b 	ldhu	r2,12(r16)
   21940:	80000115 	stw	zero,4(r16)
   21944:	0007883a 	mov	r3,zero
   21948:	1080008c 	andi	r2,r2,2
   2194c:	10bfffcc 	andi	r2,r2,65535
   21950:	10a0001c 	xori	r2,r2,32768
   21954:	10a00004 	addi	r2,r2,-32768
   21958:	0023883a 	mov	r17,zero
   2195c:	103fd326 	beq	r2,zero,218ac <_fread_r+0x84>
   21960:	1823883a 	mov	r17,r3
   21964:	b0c0012e 	bgeu	r22,r3,2196c <_fread_r+0x144>
   21968:	b023883a 	mov	r17,r22
   2196c:	81400017 	ldw	r5,0(r16)
   21970:	9809883a 	mov	r4,r19
   21974:	880d883a 	mov	r6,r17
   21978:	0022f540 	call	22f54 <memcpy>
   2197c:	80800117 	ldw	r2,4(r16)
   21980:	84800017 	ldw	r18,0(r16)
   21984:	81400c17 	ldw	r5,48(r16)
   21988:	1445c83a 	sub	r2,r2,r17
   2198c:	9465883a 	add	r18,r18,r17
   21990:	84800015 	stw	r18,0(r16)
   21994:	80800115 	stw	r2,4(r16)
   21998:	9c67883a 	add	r19,r19,r17
   2199c:	b463c83a 	sub	r17,r22,r17
   219a0:	28002e26 	beq	r5,zero,21a5c <_fread_r+0x234>
   219a4:	883fd626 	beq	r17,zero,21900 <_fread_r+0xd8>
   219a8:	80801004 	addi	r2,r16,64
   219ac:	28800326 	beq	r5,r2,219bc <_fread_r+0x194>
   219b0:	a009883a 	mov	r4,r20
   219b4:	0021be00 	call	21be0 <_free_r>
   219b8:	84800017 	ldw	r18,0(r16)
   219bc:	80000c15 	stw	zero,48(r16)
   219c0:	80c00517 	ldw	r3,20(r16)
   219c4:	87000417 	ldw	fp,16(r16)
   219c8:	d8c00015 	stw	r3,0(sp)
   219cc:	00000106 	br	219d4 <_fread_r+0x1ac>
   219d0:	883fcb26 	beq	r17,zero,21900 <_fread_r+0xd8>
   219d4:	84c00415 	stw	r19,16(r16)
   219d8:	84400515 	stw	r17,20(r16)
   219dc:	84c00015 	stw	r19,0(r16)
   219e0:	a009883a 	mov	r4,r20
   219e4:	800b883a 	mov	r5,r16
   219e8:	00232f80 	call	232f8 <__srefill_r>
   219ec:	d8c00017 	ldw	r3,0(sp)
   219f0:	81000117 	ldw	r4,4(r16)
   219f4:	87000415 	stw	fp,16(r16)
   219f8:	80c00515 	stw	r3,20(r16)
   219fc:	84800015 	stw	r18,0(r16)
   21a00:	80000115 	stw	zero,4(r16)
   21a04:	8923c83a 	sub	r17,r17,r4
   21a08:	9927883a 	add	r19,r19,r4
   21a0c:	103ff026 	beq	r2,zero,219d0 <_fread_r+0x1a8>
   21a10:	b449c83a 	sub	r4,r22,r17
   21a14:	b80b883a 	mov	r5,r23
   21a18:	002ad940 	call	2ad94 <__udivsi3>
   21a1c:	102b883a 	mov	r21,r2
   21a20:	003fb706 	br	21900 <_fread_r+0xd8>
   21a24:	a009883a 	mov	r4,r20
   21a28:	00214480 	call	21448 <__sinit>
   21a2c:	84400117 	ldw	r17,4(r16)
   21a30:	883f970e 	bge	r17,zero,21890 <_fread_r+0x68>
   21a34:	003fc106 	br	2193c <_fread_r+0x114>
   21a38:	900d883a 	mov	r6,r18
   21a3c:	0022f540 	call	22f54 <memcpy>
   21a40:	80800117 	ldw	r2,4(r16)
   21a44:	80c00017 	ldw	r3,0(r16)
   21a48:	1485c83a 	sub	r2,r2,r18
   21a4c:	1ca5883a 	add	r18,r3,r18
   21a50:	80800115 	stw	r2,4(r16)
   21a54:	84800015 	stw	r18,0(r16)
   21a58:	003fa906 	br	21900 <_fread_r+0xd8>
   21a5c:	883fd81e 	bne	r17,zero,219c0 <_fread_r+0x198>
   21a60:	003fa706 	br	21900 <_fread_r+0xd8>

00021a64 <fread>:
   21a64:	008000f4 	movhi	r2,3
   21a68:	10815204 	addi	r2,r2,1352
   21a6c:	2011883a 	mov	r8,r4
   21a70:	11000017 	ldw	r4,0(r2)
   21a74:	defffe04 	addi	sp,sp,-8
   21a78:	2807883a 	mov	r3,r5
   21a7c:	3005883a 	mov	r2,r6
   21a80:	d9c00015 	stw	r7,0(sp)
   21a84:	400b883a 	mov	r5,r8
   21a88:	180d883a 	mov	r6,r3
   21a8c:	100f883a 	mov	r7,r2
   21a90:	dfc00115 	stw	ra,4(sp)
   21a94:	00218280 	call	21828 <_fread_r>
   21a98:	dfc00117 	ldw	ra,4(sp)
   21a9c:	dec00204 	addi	sp,sp,8
   21aa0:	f800283a 	ret

00021aa4 <_malloc_trim_r>:
   21aa4:	defffb04 	addi	sp,sp,-20
   21aa8:	dcc00315 	stw	r19,12(sp)
   21aac:	dc800215 	stw	r18,8(sp)
   21ab0:	dc400115 	stw	r17,4(sp)
   21ab4:	dc000015 	stw	r16,0(sp)
   21ab8:	2827883a 	mov	r19,r5
   21abc:	dfc00415 	stw	ra,16(sp)
   21ac0:	044000f4 	movhi	r17,3
   21ac4:	8c7bc004 	addi	r17,r17,-4352
   21ac8:	2021883a 	mov	r16,r4
   21acc:	002b9a40 	call	2b9a4 <__malloc_lock>
   21ad0:	88800217 	ldw	r2,8(r17)
   21ad4:	14800117 	ldw	r18,4(r2)
   21ad8:	00bfff04 	movi	r2,-4
   21adc:	90a4703a 	and	r18,r18,r2
   21ae0:	9083fbc4 	addi	r2,r18,4079
   21ae4:	14e7c83a 	sub	r19,r2,r19
   21ae8:	9826d33a 	srli	r19,r19,12
   21aec:	0083ffc4 	movi	r2,4095
   21af0:	9cffffc4 	addi	r19,r19,-1
   21af4:	9826933a 	slli	r19,r19,12
   21af8:	14c0060e 	bge	r2,r19,21b14 <_malloc_trim_r+0x70>
   21afc:	8009883a 	mov	r4,r16
   21b00:	000b883a 	mov	r5,zero
   21b04:	00234e40 	call	234e4 <_sbrk_r>
   21b08:	88c00217 	ldw	r3,8(r17)
   21b0c:	1c87883a 	add	r3,r3,r18
   21b10:	10c00a26 	beq	r2,r3,21b3c <_malloc_trim_r+0x98>
   21b14:	8009883a 	mov	r4,r16
   21b18:	002b9c40 	call	2b9c4 <__malloc_unlock>
   21b1c:	0005883a 	mov	r2,zero
   21b20:	dfc00417 	ldw	ra,16(sp)
   21b24:	dcc00317 	ldw	r19,12(sp)
   21b28:	dc800217 	ldw	r18,8(sp)
   21b2c:	dc400117 	ldw	r17,4(sp)
   21b30:	dc000017 	ldw	r16,0(sp)
   21b34:	dec00504 	addi	sp,sp,20
   21b38:	f800283a 	ret
   21b3c:	8009883a 	mov	r4,r16
   21b40:	04cbc83a 	sub	r5,zero,r19
   21b44:	00234e40 	call	234e4 <_sbrk_r>
   21b48:	00ffffc4 	movi	r3,-1
   21b4c:	10c01326 	beq	r2,r3,21b9c <_malloc_trim_r+0xf8>
   21b50:	008000f4 	movhi	r2,3
   21b54:	10883104 	addi	r2,r2,8388
   21b58:	11000017 	ldw	r4,0(r2)
   21b5c:	88c00217 	ldw	r3,8(r17)
   21b60:	94e5c83a 	sub	r18,r18,r19
   21b64:	94800054 	ori	r18,r18,1
   21b68:	24e7c83a 	sub	r19,r4,r19
   21b6c:	1c800115 	stw	r18,4(r3)
   21b70:	8009883a 	mov	r4,r16
   21b74:	14c00015 	stw	r19,0(r2)
   21b78:	002b9c40 	call	2b9c4 <__malloc_unlock>
   21b7c:	00800044 	movi	r2,1
   21b80:	dfc00417 	ldw	ra,16(sp)
   21b84:	dcc00317 	ldw	r19,12(sp)
   21b88:	dc800217 	ldw	r18,8(sp)
   21b8c:	dc400117 	ldw	r17,4(sp)
   21b90:	dc000017 	ldw	r16,0(sp)
   21b94:	dec00504 	addi	sp,sp,20
   21b98:	f800283a 	ret
   21b9c:	8009883a 	mov	r4,r16
   21ba0:	000b883a 	mov	r5,zero
   21ba4:	00234e40 	call	234e4 <_sbrk_r>
   21ba8:	88c00217 	ldw	r3,8(r17)
   21bac:	014003c4 	movi	r5,15
   21bb0:	10c9c83a 	sub	r4,r2,r3
   21bb4:	293fd70e 	bge	r5,r4,21b14 <_malloc_trim_r+0x70>
   21bb8:	014000f4 	movhi	r5,3
   21bbc:	29415304 	addi	r5,r5,1356
   21bc0:	29400017 	ldw	r5,0(r5)
   21bc4:	21000054 	ori	r4,r4,1
   21bc8:	19000115 	stw	r4,4(r3)
   21bcc:	1145c83a 	sub	r2,r2,r5
   21bd0:	014000f4 	movhi	r5,3
   21bd4:	29483104 	addi	r5,r5,8388
   21bd8:	28800015 	stw	r2,0(r5)
   21bdc:	003fcd06 	br	21b14 <_malloc_trim_r+0x70>

00021be0 <_free_r>:
   21be0:	defffd04 	addi	sp,sp,-12
   21be4:	dc400115 	stw	r17,4(sp)
   21be8:	dc000015 	stw	r16,0(sp)
   21bec:	dfc00215 	stw	ra,8(sp)
   21bf0:	2821883a 	mov	r16,r5
   21bf4:	2023883a 	mov	r17,r4
   21bf8:	28004b26 	beq	r5,zero,21d28 <_free_r+0x148>
   21bfc:	002b9a40 	call	2b9a4 <__malloc_lock>
   21c00:	823fff17 	ldw	r8,-4(r16)
   21c04:	00bfff84 	movi	r2,-2
   21c08:	81bffe04 	addi	r6,r16,-8
   21c0c:	4084703a 	and	r2,r8,r2
   21c10:	3087883a 	add	r3,r6,r2
   21c14:	014000f4 	movhi	r5,3
   21c18:	297bc004 	addi	r5,r5,-4352
   21c1c:	1a400117 	ldw	r9,4(r3)
   21c20:	29000217 	ldw	r4,8(r5)
   21c24:	01ffff04 	movi	r7,-4
   21c28:	49ce703a 	and	r7,r9,r7
   21c2c:	20c06526 	beq	r4,r3,21dc4 <_free_r+0x1e4>
   21c30:	19c00115 	stw	r7,4(r3)
   21c34:	4200004c 	andi	r8,r8,1
   21c38:	40003026 	beq	r8,zero,21cfc <_free_r+0x11c>
   21c3c:	0009883a 	mov	r4,zero
   21c40:	19d1883a 	add	r8,r3,r7
   21c44:	42000117 	ldw	r8,4(r8)
   21c48:	4200004c 	andi	r8,r8,1
   21c4c:	4000061e 	bne	r8,zero,21c68 <_free_r+0x88>
   21c50:	11c5883a 	add	r2,r2,r7
   21c54:	19c00217 	ldw	r7,8(r3)
   21c58:	20004e26 	beq	r4,zero,21d94 <_free_r+0x1b4>
   21c5c:	18c00317 	ldw	r3,12(r3)
   21c60:	38c00315 	stw	r3,12(r7)
   21c64:	19c00215 	stw	r7,8(r3)
   21c68:	11c00054 	ori	r7,r2,1
   21c6c:	3087883a 	add	r3,r6,r2
   21c70:	31c00115 	stw	r7,4(r6)
   21c74:	18800015 	stw	r2,0(r3)
   21c78:	20001a1e 	bne	r4,zero,21ce4 <_free_r+0x104>
   21c7c:	00c07fc4 	movi	r3,511
   21c80:	18802e2e 	bgeu	r3,r2,21d3c <_free_r+0x15c>
   21c84:	1006d27a 	srli	r3,r2,9
   21c88:	01000104 	movi	r4,4
   21c8c:	20c06636 	bltu	r4,r3,21e28 <_free_r+0x248>
   21c90:	1008d1ba 	srli	r4,r2,6
   21c94:	21000e04 	addi	r4,r4,56
   21c98:	210f883a 	add	r7,r4,r4
   21c9c:	39cf883a 	add	r7,r7,r7
   21ca0:	39cf883a 	add	r7,r7,r7
   21ca4:	29cf883a 	add	r7,r5,r7
   21ca8:	38c00217 	ldw	r3,8(r7)
   21cac:	014000f4 	movhi	r5,3
   21cb0:	297bc004 	addi	r5,r5,-4352
   21cb4:	19c06126 	beq	r3,r7,21e3c <_free_r+0x25c>
   21cb8:	013fff04 	movi	r4,-4
   21cbc:	19400117 	ldw	r5,4(r3)
   21cc0:	290a703a 	and	r5,r5,r4
   21cc4:	1140022e 	bgeu	r2,r5,21cd0 <_free_r+0xf0>
   21cc8:	18c00217 	ldw	r3,8(r3)
   21ccc:	38fffb1e 	bne	r7,r3,21cbc <_free_r+0xdc>
   21cd0:	18800317 	ldw	r2,12(r3)
   21cd4:	30800315 	stw	r2,12(r6)
   21cd8:	30c00215 	stw	r3,8(r6)
   21cdc:	11800215 	stw	r6,8(r2)
   21ce0:	19800315 	stw	r6,12(r3)
   21ce4:	8809883a 	mov	r4,r17
   21ce8:	dfc00217 	ldw	ra,8(sp)
   21cec:	dc400117 	ldw	r17,4(sp)
   21cf0:	dc000017 	ldw	r16,0(sp)
   21cf4:	dec00304 	addi	sp,sp,12
   21cf8:	002b9c41 	jmpi	2b9c4 <__malloc_unlock>
   21cfc:	813ffe17 	ldw	r4,-8(r16)
   21d00:	2a400204 	addi	r9,r5,8
   21d04:	310dc83a 	sub	r6,r6,r4
   21d08:	32000217 	ldw	r8,8(r6)
   21d0c:	1105883a 	add	r2,r2,r4
   21d10:	42404326 	beq	r8,r9,21e20 <_free_r+0x240>
   21d14:	32400317 	ldw	r9,12(r6)
   21d18:	0009883a 	mov	r4,zero
   21d1c:	42400315 	stw	r9,12(r8)
   21d20:	4a000215 	stw	r8,8(r9)
   21d24:	003fc606 	br	21c40 <_free_r+0x60>
   21d28:	dfc00217 	ldw	ra,8(sp)
   21d2c:	dc400117 	ldw	r17,4(sp)
   21d30:	dc000017 	ldw	r16,0(sp)
   21d34:	dec00304 	addi	sp,sp,12
   21d38:	f800283a 	ret
   21d3c:	1004d0fa 	srli	r2,r2,3
   21d40:	02000044 	movi	r8,1
   21d44:	29c00117 	ldw	r7,4(r5)
   21d48:	1087883a 	add	r3,r2,r2
   21d4c:	18c7883a 	add	r3,r3,r3
   21d50:	1005d0ba 	srai	r2,r2,2
   21d54:	18c7883a 	add	r3,r3,r3
   21d58:	28c7883a 	add	r3,r5,r3
   21d5c:	19000217 	ldw	r4,8(r3)
   21d60:	4084983a 	sll	r2,r8,r2
   21d64:	30c00315 	stw	r3,12(r6)
   21d68:	31000215 	stw	r4,8(r6)
   21d6c:	11c4b03a 	or	r2,r2,r7
   21d70:	21800315 	stw	r6,12(r4)
   21d74:	8809883a 	mov	r4,r17
   21d78:	28800115 	stw	r2,4(r5)
   21d7c:	19800215 	stw	r6,8(r3)
   21d80:	dfc00217 	ldw	ra,8(sp)
   21d84:	dc400117 	ldw	r17,4(sp)
   21d88:	dc000017 	ldw	r16,0(sp)
   21d8c:	dec00304 	addi	sp,sp,12
   21d90:	002b9c41 	jmpi	2b9c4 <__malloc_unlock>
   21d94:	020000f4 	movhi	r8,3
   21d98:	423bc204 	addi	r8,r8,-4344
   21d9c:	3a3faf1e 	bne	r7,r8,21c5c <_free_r+0x7c>
   21da0:	29800515 	stw	r6,20(r5)
   21da4:	29800415 	stw	r6,16(r5)
   21da8:	11000054 	ori	r4,r2,1
   21dac:	3087883a 	add	r3,r6,r2
   21db0:	31c00315 	stw	r7,12(r6)
   21db4:	31c00215 	stw	r7,8(r6)
   21db8:	31000115 	stw	r4,4(r6)
   21dbc:	18800015 	stw	r2,0(r3)
   21dc0:	003fc806 	br	21ce4 <_free_r+0x104>
   21dc4:	4200004c 	andi	r8,r8,1
   21dc8:	3885883a 	add	r2,r7,r2
   21dcc:	4000071e 	bne	r8,zero,21dec <_free_r+0x20c>
   21dd0:	81fffe17 	ldw	r7,-8(r16)
   21dd4:	31cdc83a 	sub	r6,r6,r7
   21dd8:	30c00317 	ldw	r3,12(r6)
   21ddc:	31000217 	ldw	r4,8(r6)
   21de0:	11c5883a 	add	r2,r2,r7
   21de4:	20c00315 	stw	r3,12(r4)
   21de8:	19000215 	stw	r4,8(r3)
   21dec:	00c000f4 	movhi	r3,3
   21df0:	18c15404 	addi	r3,r3,1360
   21df4:	18c00017 	ldw	r3,0(r3)
   21df8:	11000054 	ori	r4,r2,1
   21dfc:	31000115 	stw	r4,4(r6)
   21e00:	29800215 	stw	r6,8(r5)
   21e04:	10ffb736 	bltu	r2,r3,21ce4 <_free_r+0x104>
   21e08:	008000f4 	movhi	r2,3
   21e0c:	10882704 	addi	r2,r2,8348
   21e10:	11400017 	ldw	r5,0(r2)
   21e14:	8809883a 	mov	r4,r17
   21e18:	0021aa40 	call	21aa4 <_malloc_trim_r>
   21e1c:	003fb106 	br	21ce4 <_free_r+0x104>
   21e20:	01000044 	movi	r4,1
   21e24:	003f8606 	br	21c40 <_free_r+0x60>
   21e28:	01000504 	movi	r4,20
   21e2c:	20c00b36 	bltu	r4,r3,21e5c <_free_r+0x27c>
   21e30:	190016c4 	addi	r4,r3,91
   21e34:	210f883a 	add	r7,r4,r4
   21e38:	003f9806 	br	21c9c <_free_r+0xbc>
   21e3c:	2009d0ba 	srai	r4,r4,2
   21e40:	00800044 	movi	r2,1
   21e44:	29c00117 	ldw	r7,4(r5)
   21e48:	1108983a 	sll	r4,r2,r4
   21e4c:	1805883a 	mov	r2,r3
   21e50:	21c8b03a 	or	r4,r4,r7
   21e54:	29000115 	stw	r4,4(r5)
   21e58:	003f9e06 	br	21cd4 <_free_r+0xf4>
   21e5c:	01001504 	movi	r4,84
   21e60:	20c00436 	bltu	r4,r3,21e74 <_free_r+0x294>
   21e64:	1008d33a 	srli	r4,r2,12
   21e68:	21001b84 	addi	r4,r4,110
   21e6c:	210f883a 	add	r7,r4,r4
   21e70:	003f8a06 	br	21c9c <_free_r+0xbc>
   21e74:	01005504 	movi	r4,340
   21e78:	20c00436 	bltu	r4,r3,21e8c <_free_r+0x2ac>
   21e7c:	1008d3fa 	srli	r4,r2,15
   21e80:	21001dc4 	addi	r4,r4,119
   21e84:	210f883a 	add	r7,r4,r4
   21e88:	003f8406 	br	21c9c <_free_r+0xbc>
   21e8c:	01015504 	movi	r4,1364
   21e90:	20c00436 	bltu	r4,r3,21ea4 <_free_r+0x2c4>
   21e94:	1008d4ba 	srli	r4,r2,18
   21e98:	21001f04 	addi	r4,r4,124
   21e9c:	210f883a 	add	r7,r4,r4
   21ea0:	003f7e06 	br	21c9c <_free_r+0xbc>
   21ea4:	01c03f04 	movi	r7,252
   21ea8:	01001f84 	movi	r4,126
   21eac:	003f7b06 	br	21c9c <_free_r+0xbc>

00021eb0 <_fseek_r>:
   21eb0:	deffe804 	addi	sp,sp,-96
   21eb4:	dd001315 	stw	r20,76(sp)
   21eb8:	dc801115 	stw	r18,68(sp)
   21ebc:	dc401015 	stw	r17,64(sp)
   21ec0:	dc000f15 	stw	r16,60(sp)
   21ec4:	dfc01715 	stw	ra,92(sp)
   21ec8:	ddc01615 	stw	r23,88(sp)
   21ecc:	dd801515 	stw	r22,84(sp)
   21ed0:	dd401415 	stw	r21,80(sp)
   21ed4:	dcc01215 	stw	r19,72(sp)
   21ed8:	2023883a 	mov	r17,r4
   21edc:	2821883a 	mov	r16,r5
   21ee0:	3029883a 	mov	r20,r6
   21ee4:	3825883a 	mov	r18,r7
   21ee8:	20000226 	beq	r4,zero,21ef4 <_fseek_r+0x44>
   21eec:	20800e17 	ldw	r2,56(r4)
   21ef0:	10006226 	beq	r2,zero,2207c <_fseek_r+0x1cc>
   21ef4:	80c0030b 	ldhu	r3,12(r16)
   21ef8:	00804204 	movi	r2,264
   21efc:	18c0420c 	andi	r3,r3,264
   21f00:	18806326 	beq	r3,r2,22090 <_fseek_r+0x1e0>
   21f04:	84c00a17 	ldw	r19,40(r16)
   21f08:	98010226 	beq	r19,zero,22314 <_fseek_r+0x464>
   21f0c:	00800044 	movi	r2,1
   21f10:	90803d26 	beq	r18,r2,22008 <_fseek_r+0x158>
   21f14:	00800084 	movi	r2,2
   21f18:	90800126 	beq	r18,r2,21f20 <_fseek_r+0x70>
   21f1c:	90002c1e 	bne	r18,zero,21fd0 <_fseek_r+0x120>
   21f20:	80800417 	ldw	r2,16(r16)
   21f24:	002d883a 	mov	r22,zero
   21f28:	002b883a 	mov	r21,zero
   21f2c:	1000e526 	beq	r2,zero,222c4 <_fseek_r+0x414>
   21f30:	80c0030b 	ldhu	r3,12(r16)
   21f34:	1882068c 	andi	r2,r3,2074
   21f38:	1809883a 	mov	r4,r3
   21f3c:	10000a1e 	bne	r2,zero,21f68 <_fseek_r+0xb8>
   21f40:	1881000c 	andi	r2,r3,1024
   21f44:	10bfffcc 	andi	r2,r2,65535
   21f48:	10a0001c 	xori	r2,r2,32768
   21f4c:	10a00004 	addi	r2,r2,-32768
   21f50:	1000631e 	bne	r2,zero,220e0 <_fseek_r+0x230>
   21f54:	008000b4 	movhi	r2,2
   21f58:	108d8904 	addi	r2,r2,13860
   21f5c:	98805026 	beq	r19,r2,220a0 <_fseek_r+0x1f0>
   21f60:	18c20014 	ori	r3,r3,2048
   21f64:	80c0030d 	sth	r3,12(r16)
   21f68:	8809883a 	mov	r4,r17
   21f6c:	800b883a 	mov	r5,r16
   21f70:	002118c0 	call	2118c <_fflush_r>
   21f74:	1000181e 	bne	r2,zero,21fd8 <_fseek_r+0x128>
   21f78:	81400717 	ldw	r5,28(r16)
   21f7c:	8809883a 	mov	r4,r17
   21f80:	a00d883a 	mov	r6,r20
   21f84:	900f883a 	mov	r7,r18
   21f88:	983ee83a 	callr	r19
   21f8c:	00ffffc4 	movi	r3,-1
   21f90:	10c01126 	beq	r2,r3,21fd8 <_fseek_r+0x128>
   21f94:	81400c17 	ldw	r5,48(r16)
   21f98:	28000526 	beq	r5,zero,21fb0 <_fseek_r+0x100>
   21f9c:	80801004 	addi	r2,r16,64
   21fa0:	28800226 	beq	r5,r2,21fac <_fseek_r+0xfc>
   21fa4:	8809883a 	mov	r4,r17
   21fa8:	0021be00 	call	21be0 <_free_r>
   21fac:	80000c15 	stw	zero,48(r16)
   21fb0:	8080030b 	ldhu	r2,12(r16)
   21fb4:	80c00417 	ldw	r3,16(r16)
   21fb8:	80000115 	stw	zero,4(r16)
   21fbc:	10bdf7cc 	andi	r2,r2,63455
   21fc0:	8080030d 	sth	r2,12(r16)
   21fc4:	80c00015 	stw	r3,0(r16)
   21fc8:	0005883a 	mov	r2,zero
   21fcc:	00000306 	br	21fdc <_fseek_r+0x12c>
   21fd0:	00800584 	movi	r2,22
   21fd4:	88800015 	stw	r2,0(r17)
   21fd8:	00bfffc4 	movi	r2,-1
   21fdc:	dfc01717 	ldw	ra,92(sp)
   21fe0:	ddc01617 	ldw	r23,88(sp)
   21fe4:	dd801517 	ldw	r22,84(sp)
   21fe8:	dd401417 	ldw	r21,80(sp)
   21fec:	dd001317 	ldw	r20,76(sp)
   21ff0:	dcc01217 	ldw	r19,72(sp)
   21ff4:	dc801117 	ldw	r18,68(sp)
   21ff8:	dc401017 	ldw	r17,64(sp)
   21ffc:	dc000f17 	ldw	r16,60(sp)
   22000:	dec01804 	addi	sp,sp,96
   22004:	f800283a 	ret
   22008:	8809883a 	mov	r4,r17
   2200c:	800b883a 	mov	r5,r16
   22010:	002118c0 	call	2118c <_fflush_r>
   22014:	8080030b 	ldhu	r2,12(r16)
   22018:	10c4000c 	andi	r3,r2,4096
   2201c:	18ffffcc 	andi	r3,r3,65535
   22020:	18e0001c 	xori	r3,r3,32768
   22024:	18e00004 	addi	r3,r3,-32768
   22028:	18007d26 	beq	r3,zero,22220 <_fseek_r+0x370>
   2202c:	85401417 	ldw	r21,80(r16)
   22030:	10c0010c 	andi	r3,r2,4
   22034:	18ffffcc 	andi	r3,r3,65535
   22038:	18e0001c 	xori	r3,r3,32768
   2203c:	18e00004 	addi	r3,r3,-32768
   22040:	18005f1e 	bne	r3,zero,221c0 <_fseek_r+0x310>
   22044:	1080020c 	andi	r2,r2,8
   22048:	10bfffcc 	andi	r2,r2,65535
   2204c:	10a0001c 	xori	r2,r2,32768
   22050:	10a00004 	addi	r2,r2,-32768
   22054:	10007026 	beq	r2,zero,22218 <_fseek_r+0x368>
   22058:	80c00017 	ldw	r3,0(r16)
   2205c:	80800417 	ldw	r2,16(r16)
   22060:	18000226 	beq	r3,zero,2206c <_fseek_r+0x1bc>
   22064:	1887c83a 	sub	r3,r3,r2
   22068:	a8eb883a 	add	r21,r21,r3
   2206c:	a569883a 	add	r20,r20,r21
   22070:	05800044 	movi	r22,1
   22074:	0025883a 	mov	r18,zero
   22078:	003fac06 	br	21f2c <_fseek_r+0x7c>
   2207c:	00214480 	call	21448 <__sinit>
   22080:	80c0030b 	ldhu	r3,12(r16)
   22084:	00804204 	movi	r2,264
   22088:	18c0420c 	andi	r3,r3,264
   2208c:	18bf9d1e 	bne	r3,r2,21f04 <_fseek_r+0x54>
   22090:	8809883a 	mov	r4,r17
   22094:	800b883a 	mov	r5,r16
   22098:	002118c0 	call	2118c <_fflush_r>
   2209c:	003f9906 	br	21f04 <_fseek_r+0x54>
   220a0:	8140038f 	ldh	r5,14(r16)
   220a4:	283fae16 	blt	r5,zero,21f60 <_fseek_r+0xb0>
   220a8:	8809883a 	mov	r4,r17
   220ac:	d80d883a 	mov	r6,sp
   220b0:	00223480 	call	22348 <_fstat_r>
   220b4:	1000741e 	bne	r2,zero,22288 <_fseek_r+0x3d8>
   220b8:	d8c00117 	ldw	r3,4(sp)
   220bc:	00a00014 	movui	r2,32768
   220c0:	18fc000c 	andi	r3,r3,61440
   220c4:	1880701e 	bne	r3,r2,22288 <_fseek_r+0x3d8>
   220c8:	8100030b 	ldhu	r4,12(r16)
   220cc:	00810004 	movi	r2,1024
   220d0:	80801315 	stw	r2,76(r16)
   220d4:	2084b03a 	or	r2,r4,r2
   220d8:	1009883a 	mov	r4,r2
   220dc:	8080030d 	sth	r2,12(r16)
   220e0:	90003f1e 	bne	r18,zero,221e0 <_fseek_r+0x330>
   220e4:	a02f883a 	mov	r23,r20
   220e8:	b000461e 	bne	r22,zero,22204 <_fseek_r+0x354>
   220ec:	2084000c 	andi	r2,r4,4096
   220f0:	10bfffcc 	andi	r2,r2,65535
   220f4:	10a0001c 	xori	r2,r2,32768
   220f8:	10a00004 	addi	r2,r2,-32768
   220fc:	10007526 	beq	r2,zero,222d4 <_fseek_r+0x424>
   22100:	80801417 	ldw	r2,80(r16)
   22104:	80c00117 	ldw	r3,4(r16)
   22108:	81400c17 	ldw	r5,48(r16)
   2210c:	10ebc83a 	sub	r21,r2,r3
   22110:	28007926 	beq	r5,zero,222f8 <_fseek_r+0x448>
   22114:	81c00f17 	ldw	r7,60(r16)
   22118:	a9ebc83a 	sub	r21,r21,r7
   2211c:	80800e17 	ldw	r2,56(r16)
   22120:	81800417 	ldw	r6,16(r16)
   22124:	a8eb883a 	add	r21,r21,r3
   22128:	1185c83a 	sub	r2,r2,r6
   2212c:	a8abc83a 	sub	r21,r21,r2
   22130:	3885883a 	add	r2,r7,r2
   22134:	2208000c 	andi	r8,r4,8192
   22138:	423fffcc 	andi	r8,r8,65535
   2213c:	4220001c 	xori	r8,r8,32768
   22140:	42200004 	addi	r8,r8,-32768
   22144:	4000031e 	bne	r8,zero,22154 <_fseek_r+0x2a4>
   22148:	bd400216 	blt	r23,r21,22154 <_fseek_r+0x2a4>
   2214c:	a887883a 	add	r3,r21,r2
   22150:	b8c03d36 	bltu	r23,r3,22248 <_fseek_r+0x398>
   22154:	85401317 	ldw	r21,76(r16)
   22158:	81400717 	ldw	r5,28(r16)
   2215c:	8809883a 	mov	r4,r17
   22160:	056bc83a 	sub	r21,zero,r21
   22164:	bd6a703a 	and	r21,r23,r21
   22168:	a80d883a 	mov	r6,r21
   2216c:	000f883a 	mov	r7,zero
   22170:	983ee83a 	callr	r19
   22174:	00ffffc4 	movi	r3,-1
   22178:	10ff7b26 	beq	r2,r3,21f68 <_fseek_r+0xb8>
   2217c:	80800417 	ldw	r2,16(r16)
   22180:	81400c17 	ldw	r5,48(r16)
   22184:	80000115 	stw	zero,4(r16)
   22188:	80800015 	stw	r2,0(r16)
   2218c:	28000526 	beq	r5,zero,221a4 <_fseek_r+0x2f4>
   22190:	80801004 	addi	r2,r16,64
   22194:	28800226 	beq	r5,r2,221a0 <_fseek_r+0x2f0>
   22198:	8809883a 	mov	r4,r17
   2219c:	0021be00 	call	21be0 <_free_r>
   221a0:	80000c15 	stw	zero,48(r16)
   221a4:	8080030b 	ldhu	r2,12(r16)
   221a8:	bd6fc83a 	sub	r23,r23,r21
   221ac:	10bff7cc 	andi	r2,r2,65503
   221b0:	8080030d 	sth	r2,12(r16)
   221b4:	b800361e 	bne	r23,zero,22290 <_fseek_r+0x3e0>
   221b8:	0005883a 	mov	r2,zero
   221bc:	003f8706 	br	21fdc <_fseek_r+0x12c>
   221c0:	80c00117 	ldw	r3,4(r16)
   221c4:	80800c17 	ldw	r2,48(r16)
   221c8:	a8ebc83a 	sub	r21,r21,r3
   221cc:	10001226 	beq	r2,zero,22218 <_fseek_r+0x368>
   221d0:	80c00f17 	ldw	r3,60(r16)
   221d4:	80800417 	ldw	r2,16(r16)
   221d8:	a8ebc83a 	sub	r21,r21,r3
   221dc:	003fa306 	br	2206c <_fseek_r+0x1bc>
   221e0:	8140038f 	ldh	r5,14(r16)
   221e4:	8809883a 	mov	r4,r17
   221e8:	d80d883a 	mov	r6,sp
   221ec:	00223480 	call	22348 <_fstat_r>
   221f0:	103f5d1e 	bne	r2,zero,21f68 <_fseek_r+0xb8>
   221f4:	ddc00417 	ldw	r23,16(sp)
   221f8:	8100030b 	ldhu	r4,12(r16)
   221fc:	a5ef883a 	add	r23,r20,r23
   22200:	b03fba26 	beq	r22,zero,220ec <_fseek_r+0x23c>
   22204:	81400c17 	ldw	r5,48(r16)
   22208:	80c00117 	ldw	r3,4(r16)
   2220c:	28003a26 	beq	r5,zero,222f8 <_fseek_r+0x448>
   22210:	81c00f17 	ldw	r7,60(r16)
   22214:	003fc106 	br	2211c <_fseek_r+0x26c>
   22218:	80800417 	ldw	r2,16(r16)
   2221c:	003f9306 	br	2206c <_fseek_r+0x1bc>
   22220:	81400717 	ldw	r5,28(r16)
   22224:	8809883a 	mov	r4,r17
   22228:	000d883a 	mov	r6,zero
   2222c:	900f883a 	mov	r7,r18
   22230:	983ee83a 	callr	r19
   22234:	102b883a 	mov	r21,r2
   22238:	00bfffc4 	movi	r2,-1
   2223c:	a8bf6626 	beq	r21,r2,21fd8 <_fseek_r+0x128>
   22240:	8080030b 	ldhu	r2,12(r16)
   22244:	003f7a06 	br	22030 <_fseek_r+0x180>
   22248:	bd6bc83a 	sub	r21,r23,r21
   2224c:	354d883a 	add	r6,r6,r21
   22250:	1545c83a 	sub	r2,r2,r21
   22254:	81800015 	stw	r6,0(r16)
   22258:	80800115 	stw	r2,4(r16)
   2225c:	28000626 	beq	r5,zero,22278 <_fseek_r+0x3c8>
   22260:	80801004 	addi	r2,r16,64
   22264:	28800326 	beq	r5,r2,22274 <_fseek_r+0x3c4>
   22268:	8809883a 	mov	r4,r17
   2226c:	0021be00 	call	21be0 <_free_r>
   22270:	8100030b 	ldhu	r4,12(r16)
   22274:	80000c15 	stw	zero,48(r16)
   22278:	213ff7cc 	andi	r4,r4,65503
   2227c:	8100030d 	sth	r4,12(r16)
   22280:	0005883a 	mov	r2,zero
   22284:	003f5506 	br	21fdc <_fseek_r+0x12c>
   22288:	80c0030b 	ldhu	r3,12(r16)
   2228c:	003f3406 	br	21f60 <_fseek_r+0xb0>
   22290:	8809883a 	mov	r4,r17
   22294:	800b883a 	mov	r5,r16
   22298:	00232f80 	call	232f8 <__srefill_r>
   2229c:	103f321e 	bne	r2,zero,21f68 <_fseek_r+0xb8>
   222a0:	80800117 	ldw	r2,4(r16)
   222a4:	15ff3036 	bltu	r2,r23,21f68 <_fseek_r+0xb8>
   222a8:	80c00017 	ldw	r3,0(r16)
   222ac:	15c5c83a 	sub	r2,r2,r23
   222b0:	80800115 	stw	r2,4(r16)
   222b4:	1def883a 	add	r23,r3,r23
   222b8:	85c00015 	stw	r23,0(r16)
   222bc:	0005883a 	mov	r2,zero
   222c0:	003f4606 	br	21fdc <_fseek_r+0x12c>
   222c4:	8809883a 	mov	r4,r17
   222c8:	800b883a 	mov	r5,r16
   222cc:	00226000 	call	22600 <__smakebuf_r>
   222d0:	003f1706 	br	21f30 <_fseek_r+0x80>
   222d4:	81400717 	ldw	r5,28(r16)
   222d8:	8809883a 	mov	r4,r17
   222dc:	000d883a 	mov	r6,zero
   222e0:	01c00044 	movi	r7,1
   222e4:	983ee83a 	callr	r19
   222e8:	00ffffc4 	movi	r3,-1
   222ec:	10ff1e26 	beq	r2,r3,21f68 <_fseek_r+0xb8>
   222f0:	8100030b 	ldhu	r4,12(r16)
   222f4:	003f8306 	br	22104 <_fseek_r+0x254>
   222f8:	80800017 	ldw	r2,0(r16)
   222fc:	81800417 	ldw	r6,16(r16)
   22300:	000b883a 	mov	r5,zero
   22304:	1185c83a 	sub	r2,r2,r6
   22308:	a8abc83a 	sub	r21,r21,r2
   2230c:	1885883a 	add	r2,r3,r2
   22310:	003f8806 	br	22134 <_fseek_r+0x284>
   22314:	00800744 	movi	r2,29
   22318:	88800015 	stw	r2,0(r17)
   2231c:	00bfffc4 	movi	r2,-1
   22320:	003f2e06 	br	21fdc <_fseek_r+0x12c>

00022324 <fseek>:
   22324:	008000f4 	movhi	r2,3
   22328:	10815204 	addi	r2,r2,1352
   2232c:	2007883a 	mov	r3,r4
   22330:	11000017 	ldw	r4,0(r2)
   22334:	2805883a 	mov	r2,r5
   22338:	300f883a 	mov	r7,r6
   2233c:	180b883a 	mov	r5,r3
   22340:	100d883a 	mov	r6,r2
   22344:	0021eb01 	jmpi	21eb0 <_fseek_r>

00022348 <_fstat_r>:
   22348:	defffd04 	addi	sp,sp,-12
   2234c:	dc400115 	stw	r17,4(sp)
   22350:	dc000015 	stw	r16,0(sp)
   22354:	2023883a 	mov	r17,r4
   22358:	040000f4 	movhi	r16,3
   2235c:	84082404 	addi	r16,r16,8336
   22360:	2809883a 	mov	r4,r5
   22364:	300b883a 	mov	r5,r6
   22368:	dfc00215 	stw	ra,8(sp)
   2236c:	80000015 	stw	zero,0(r16)
   22370:	002b5780 	call	2b578 <fstat>
   22374:	00ffffc4 	movi	r3,-1
   22378:	10c00526 	beq	r2,r3,22390 <_fstat_r+0x48>
   2237c:	dfc00217 	ldw	ra,8(sp)
   22380:	dc400117 	ldw	r17,4(sp)
   22384:	dc000017 	ldw	r16,0(sp)
   22388:	dec00304 	addi	sp,sp,12
   2238c:	f800283a 	ret
   22390:	80c00017 	ldw	r3,0(r16)
   22394:	183ff926 	beq	r3,zero,2237c <_fstat_r+0x34>
   22398:	88c00015 	stw	r3,0(r17)
   2239c:	dfc00217 	ldw	ra,8(sp)
   223a0:	dc400117 	ldw	r17,4(sp)
   223a4:	dc000017 	ldw	r16,0(sp)
   223a8:	dec00304 	addi	sp,sp,12
   223ac:	f800283a 	ret

000223b0 <_fwalk>:
   223b0:	defff904 	addi	sp,sp,-28
   223b4:	dcc00315 	stw	r19,12(sp)
   223b8:	24c0b804 	addi	r19,r4,736
   223bc:	dd400515 	stw	r21,20(sp)
   223c0:	dd000415 	stw	r20,16(sp)
   223c4:	dfc00615 	stw	ra,24(sp)
   223c8:	dc800215 	stw	r18,8(sp)
   223cc:	dc400115 	stw	r17,4(sp)
   223d0:	dc000015 	stw	r16,0(sp)
   223d4:	282b883a 	mov	r21,r5
   223d8:	0029883a 	mov	r20,zero
   223dc:	00216500 	call	21650 <__sfp_lock_acquire>
   223e0:	98001226 	beq	r19,zero,2242c <_fwalk+0x7c>
   223e4:	04bfffc4 	movi	r18,-1
   223e8:	9c400117 	ldw	r17,4(r19)
   223ec:	9c000217 	ldw	r16,8(r19)
   223f0:	8c7fffc4 	addi	r17,r17,-1
   223f4:	88000b16 	blt	r17,zero,22424 <_fwalk+0x74>
   223f8:	84000304 	addi	r16,r16,12
   223fc:	80c0000f 	ldh	r3,0(r16)
   22400:	8c7fffc4 	addi	r17,r17,-1
   22404:	813ffd04 	addi	r4,r16,-12
   22408:	18000426 	beq	r3,zero,2241c <_fwalk+0x6c>
   2240c:	80c0008f 	ldh	r3,2(r16)
   22410:	1c800226 	beq	r3,r18,2241c <_fwalk+0x6c>
   22414:	a83ee83a 	callr	r21
   22418:	a0a8b03a 	or	r20,r20,r2
   2241c:	84001704 	addi	r16,r16,92
   22420:	8cbff61e 	bne	r17,r18,223fc <_fwalk+0x4c>
   22424:	9cc00017 	ldw	r19,0(r19)
   22428:	983fef1e 	bne	r19,zero,223e8 <_fwalk+0x38>
   2242c:	00216540 	call	21654 <__sfp_lock_release>
   22430:	a005883a 	mov	r2,r20
   22434:	dfc00617 	ldw	ra,24(sp)
   22438:	dd400517 	ldw	r21,20(sp)
   2243c:	dd000417 	ldw	r20,16(sp)
   22440:	dcc00317 	ldw	r19,12(sp)
   22444:	dc800217 	ldw	r18,8(sp)
   22448:	dc400117 	ldw	r17,4(sp)
   2244c:	dc000017 	ldw	r16,0(sp)
   22450:	dec00704 	addi	sp,sp,28
   22454:	f800283a 	ret

00022458 <_fwalk_reent>:
   22458:	defff804 	addi	sp,sp,-32
   2245c:	dcc00315 	stw	r19,12(sp)
   22460:	24c0b804 	addi	r19,r4,736
   22464:	dd800615 	stw	r22,24(sp)
   22468:	dd400515 	stw	r21,20(sp)
   2246c:	dd000415 	stw	r20,16(sp)
   22470:	dfc00715 	stw	ra,28(sp)
   22474:	dc800215 	stw	r18,8(sp)
   22478:	dc400115 	stw	r17,4(sp)
   2247c:	dc000015 	stw	r16,0(sp)
   22480:	2029883a 	mov	r20,r4
   22484:	282b883a 	mov	r21,r5
   22488:	002d883a 	mov	r22,zero
   2248c:	00216500 	call	21650 <__sfp_lock_acquire>
   22490:	98001326 	beq	r19,zero,224e0 <_fwalk_reent+0x88>
   22494:	04bfffc4 	movi	r18,-1
   22498:	9c400117 	ldw	r17,4(r19)
   2249c:	9c000217 	ldw	r16,8(r19)
   224a0:	8c7fffc4 	addi	r17,r17,-1
   224a4:	88000c16 	blt	r17,zero,224d8 <_fwalk_reent+0x80>
   224a8:	84000304 	addi	r16,r16,12
   224ac:	80c0000f 	ldh	r3,0(r16)
   224b0:	8c7fffc4 	addi	r17,r17,-1
   224b4:	817ffd04 	addi	r5,r16,-12
   224b8:	18000526 	beq	r3,zero,224d0 <_fwalk_reent+0x78>
   224bc:	80c0008f 	ldh	r3,2(r16)
   224c0:	a009883a 	mov	r4,r20
   224c4:	1c800226 	beq	r3,r18,224d0 <_fwalk_reent+0x78>
   224c8:	a83ee83a 	callr	r21
   224cc:	b0acb03a 	or	r22,r22,r2
   224d0:	84001704 	addi	r16,r16,92
   224d4:	8cbff51e 	bne	r17,r18,224ac <_fwalk_reent+0x54>
   224d8:	9cc00017 	ldw	r19,0(r19)
   224dc:	983fee1e 	bne	r19,zero,22498 <_fwalk_reent+0x40>
   224e0:	00216540 	call	21654 <__sfp_lock_release>
   224e4:	b005883a 	mov	r2,r22
   224e8:	dfc00717 	ldw	ra,28(sp)
   224ec:	dd800617 	ldw	r22,24(sp)
   224f0:	dd400517 	ldw	r21,20(sp)
   224f4:	dd000417 	ldw	r20,16(sp)
   224f8:	dcc00317 	ldw	r19,12(sp)
   224fc:	dc800217 	ldw	r18,8(sp)
   22500:	dc400117 	ldw	r17,4(sp)
   22504:	dc000017 	ldw	r16,0(sp)
   22508:	dec00804 	addi	sp,sp,32
   2250c:	f800283a 	ret

00022510 <_fwrite_r>:
   22510:	defff604 	addi	sp,sp,-40
   22514:	dc000515 	stw	r16,20(sp)
   22518:	d9400315 	stw	r5,12(sp)
   2251c:	2021883a 	mov	r16,r4
   22520:	300b883a 	mov	r5,r6
   22524:	3809883a 	mov	r4,r7
   22528:	dcc00815 	stw	r19,32(sp)
   2252c:	dc800715 	stw	r18,28(sp)
   22530:	dc400615 	stw	r17,24(sp)
   22534:	dfc00915 	stw	ra,36(sp)
   22538:	3027883a 	mov	r19,r6
   2253c:	3823883a 	mov	r17,r7
   22540:	00210140 	call	21014 <__mulsi3>
   22544:	1025883a 	mov	r18,r2
   22548:	d8800415 	stw	r2,16(sp)
   2254c:	d8800215 	stw	r2,8(sp)
   22550:	d8800304 	addi	r2,sp,12
   22554:	d8800015 	stw	r2,0(sp)
   22558:	00800044 	movi	r2,1
   2255c:	d8800115 	stw	r2,4(sp)
   22560:	80000226 	beq	r16,zero,2256c <_fwrite_r+0x5c>
   22564:	80800e17 	ldw	r2,56(r16)
   22568:	10001226 	beq	r2,zero,225b4 <_fwrite_r+0xa4>
   2256c:	d9400a17 	ldw	r5,40(sp)
   22570:	8009883a 	mov	r4,r16
   22574:	d80d883a 	mov	r6,sp
   22578:	002711c0 	call	2711c <__sfvwrite_r>
   2257c:	10000526 	beq	r2,zero,22594 <_fwrite_r+0x84>
   22580:	d9000217 	ldw	r4,8(sp)
   22584:	980b883a 	mov	r5,r19
   22588:	9109c83a 	sub	r4,r18,r4
   2258c:	002ad940 	call	2ad94 <__udivsi3>
   22590:	1023883a 	mov	r17,r2
   22594:	8805883a 	mov	r2,r17
   22598:	dfc00917 	ldw	ra,36(sp)
   2259c:	dcc00817 	ldw	r19,32(sp)
   225a0:	dc800717 	ldw	r18,28(sp)
   225a4:	dc400617 	ldw	r17,24(sp)
   225a8:	dc000517 	ldw	r16,20(sp)
   225ac:	dec00a04 	addi	sp,sp,40
   225b0:	f800283a 	ret
   225b4:	8009883a 	mov	r4,r16
   225b8:	00214480 	call	21448 <__sinit>
   225bc:	003feb06 	br	2256c <_fwrite_r+0x5c>

000225c0 <fwrite>:
   225c0:	008000f4 	movhi	r2,3
   225c4:	10815204 	addi	r2,r2,1352
   225c8:	2011883a 	mov	r8,r4
   225cc:	11000017 	ldw	r4,0(r2)
   225d0:	defffe04 	addi	sp,sp,-8
   225d4:	2807883a 	mov	r3,r5
   225d8:	3005883a 	mov	r2,r6
   225dc:	d9c00015 	stw	r7,0(sp)
   225e0:	400b883a 	mov	r5,r8
   225e4:	180d883a 	mov	r6,r3
   225e8:	100f883a 	mov	r7,r2
   225ec:	dfc00115 	stw	ra,4(sp)
   225f0:	00225100 	call	22510 <_fwrite_r>
   225f4:	dfc00117 	ldw	ra,4(sp)
   225f8:	dec00204 	addi	sp,sp,8
   225fc:	f800283a 	ret

00022600 <__smakebuf_r>:
   22600:	2880030b 	ldhu	r2,12(r5)
   22604:	deffed04 	addi	sp,sp,-76
   22608:	dc401015 	stw	r17,64(sp)
   2260c:	10c0008c 	andi	r3,r2,2
   22610:	18ffffcc 	andi	r3,r3,65535
   22614:	18e0001c 	xori	r3,r3,32768
   22618:	dc000f15 	stw	r16,60(sp)
   2261c:	dfc01215 	stw	ra,72(sp)
   22620:	dc801115 	stw	r18,68(sp)
   22624:	18e00004 	addi	r3,r3,-32768
   22628:	2821883a 	mov	r16,r5
   2262c:	2023883a 	mov	r17,r4
   22630:	1800381e 	bne	r3,zero,22714 <__smakebuf_r+0x114>
   22634:	2940038f 	ldh	r5,14(r5)
   22638:	28002d16 	blt	r5,zero,226f0 <__smakebuf_r+0xf0>
   2263c:	d80d883a 	mov	r6,sp
   22640:	00223480 	call	22348 <_fstat_r>
   22644:	10002916 	blt	r2,zero,226ec <__smakebuf_r+0xec>
   22648:	d8800117 	ldw	r2,4(sp)
   2264c:	00e00014 	movui	r3,32768
   22650:	10bc000c 	andi	r2,r2,61440
   22654:	10c03c26 	beq	r2,r3,22748 <__smakebuf_r+0x148>
   22658:	80c0030b 	ldhu	r3,12(r16)
   2265c:	18c20014 	ori	r3,r3,2048
   22660:	80c0030d 	sth	r3,12(r16)
   22664:	00c80004 	movi	r3,8192
   22668:	10c00c1e 	bne	r2,r3,2269c <__smakebuf_r+0x9c>
   2266c:	8140038f 	ldh	r5,14(r16)
   22670:	8809883a 	mov	r4,r17
   22674:	00276000 	call	27600 <_isatty_r>
   22678:	10000826 	beq	r2,zero,2269c <__smakebuf_r+0x9c>
   2267c:	80c0030b 	ldhu	r3,12(r16)
   22680:	808010c4 	addi	r2,r16,67
   22684:	80800015 	stw	r2,0(r16)
   22688:	18c00054 	ori	r3,r3,1
   2268c:	80800415 	stw	r2,16(r16)
   22690:	00800044 	movi	r2,1
   22694:	80c0030d 	sth	r3,12(r16)
   22698:	80800515 	stw	r2,20(r16)
   2269c:	04810004 	movi	r18,1024
   226a0:	8809883a 	mov	r4,r17
   226a4:	900b883a 	mov	r5,r18
   226a8:	00227d00 	call	227d0 <_malloc_r>
   226ac:	10003026 	beq	r2,zero,22770 <__smakebuf_r+0x170>
   226b0:	80c0030b 	ldhu	r3,12(r16)
   226b4:	010000b4 	movhi	r4,2
   226b8:	2104ed04 	addi	r4,r4,5044
   226bc:	89000f15 	stw	r4,60(r17)
   226c0:	18c02014 	ori	r3,r3,128
   226c4:	80c0030d 	sth	r3,12(r16)
   226c8:	80800015 	stw	r2,0(r16)
   226cc:	80800415 	stw	r2,16(r16)
   226d0:	84800515 	stw	r18,20(r16)
   226d4:	dfc01217 	ldw	ra,72(sp)
   226d8:	dc801117 	ldw	r18,68(sp)
   226dc:	dc401017 	ldw	r17,64(sp)
   226e0:	dc000f17 	ldw	r16,60(sp)
   226e4:	dec01304 	addi	sp,sp,76
   226e8:	f800283a 	ret
   226ec:	8080030b 	ldhu	r2,12(r16)
   226f0:	10c0200c 	andi	r3,r2,128
   226f4:	18ffffcc 	andi	r3,r3,65535
   226f8:	18e0001c 	xori	r3,r3,32768
   226fc:	18e00004 	addi	r3,r3,-32768
   22700:	18000f1e 	bne	r3,zero,22740 <__smakebuf_r+0x140>
   22704:	04810004 	movi	r18,1024
   22708:	10820014 	ori	r2,r2,2048
   2270c:	8080030d 	sth	r2,12(r16)
   22710:	003fe306 	br	226a0 <__smakebuf_r+0xa0>
   22714:	288010c4 	addi	r2,r5,67
   22718:	28800015 	stw	r2,0(r5)
   2271c:	28800415 	stw	r2,16(r5)
   22720:	00800044 	movi	r2,1
   22724:	28800515 	stw	r2,20(r5)
   22728:	dfc01217 	ldw	ra,72(sp)
   2272c:	dc801117 	ldw	r18,68(sp)
   22730:	dc401017 	ldw	r17,64(sp)
   22734:	dc000f17 	ldw	r16,60(sp)
   22738:	dec01304 	addi	sp,sp,76
   2273c:	f800283a 	ret
   22740:	04801004 	movi	r18,64
   22744:	003ff006 	br	22708 <__smakebuf_r+0x108>
   22748:	81000a17 	ldw	r4,40(r16)
   2274c:	00c000b4 	movhi	r3,2
   22750:	18cd8904 	addi	r3,r3,13860
   22754:	20ffc01e 	bne	r4,r3,22658 <__smakebuf_r+0x58>
   22758:	8080030b 	ldhu	r2,12(r16)
   2275c:	00c10004 	movi	r3,1024
   22760:	80c01315 	stw	r3,76(r16)
   22764:	10c4b03a 	or	r2,r2,r3
   22768:	8080030d 	sth	r2,12(r16)
   2276c:	003fcb06 	br	2269c <__smakebuf_r+0x9c>
   22770:	8080030b 	ldhu	r2,12(r16)
   22774:	10c0800c 	andi	r3,r2,512
   22778:	18ffffcc 	andi	r3,r3,65535
   2277c:	18e0001c 	xori	r3,r3,32768
   22780:	18e00004 	addi	r3,r3,-32768
   22784:	183fd31e 	bne	r3,zero,226d4 <__smakebuf_r+0xd4>
   22788:	10800094 	ori	r2,r2,2
   2278c:	80c010c4 	addi	r3,r16,67
   22790:	8080030d 	sth	r2,12(r16)
   22794:	00800044 	movi	r2,1
   22798:	80c00015 	stw	r3,0(r16)
   2279c:	80c00415 	stw	r3,16(r16)
   227a0:	80800515 	stw	r2,20(r16)
   227a4:	003fcb06 	br	226d4 <__smakebuf_r+0xd4>

000227a8 <malloc>:
   227a8:	008000f4 	movhi	r2,3
   227ac:	10815204 	addi	r2,r2,1352
   227b0:	200b883a 	mov	r5,r4
   227b4:	11000017 	ldw	r4,0(r2)
   227b8:	00227d01 	jmpi	227d0 <_malloc_r>

000227bc <free>:
   227bc:	008000f4 	movhi	r2,3
   227c0:	10815204 	addi	r2,r2,1352
   227c4:	200b883a 	mov	r5,r4
   227c8:	11000017 	ldw	r4,0(r2)
   227cc:	0021be01 	jmpi	21be0 <_free_r>

000227d0 <_malloc_r>:
   227d0:	defff604 	addi	sp,sp,-40
   227d4:	dc800215 	stw	r18,8(sp)
   227d8:	dfc00915 	stw	ra,36(sp)
   227dc:	df000815 	stw	fp,32(sp)
   227e0:	ddc00715 	stw	r23,28(sp)
   227e4:	dd800615 	stw	r22,24(sp)
   227e8:	dd400515 	stw	r21,20(sp)
   227ec:	dd000415 	stw	r20,16(sp)
   227f0:	dcc00315 	stw	r19,12(sp)
   227f4:	dc400115 	stw	r17,4(sp)
   227f8:	dc000015 	stw	r16,0(sp)
   227fc:	288002c4 	addi	r2,r5,11
   22800:	00c00584 	movi	r3,22
   22804:	2025883a 	mov	r18,r4
   22808:	18802b2e 	bgeu	r3,r2,228b8 <_malloc_r+0xe8>
   2280c:	047ffe04 	movi	r17,-8
   22810:	1462703a 	and	r17,r2,r17
   22814:	88002a16 	blt	r17,zero,228c0 <_malloc_r+0xf0>
   22818:	89402936 	bltu	r17,r5,228c0 <_malloc_r+0xf0>
   2281c:	9009883a 	mov	r4,r18
   22820:	002b9a40 	call	2b9a4 <__malloc_lock>
   22824:	00807dc4 	movi	r2,503
   22828:	14402936 	bltu	r2,r17,228d0 <_malloc_r+0x100>
   2282c:	8808d0fa 	srli	r4,r17,3
   22830:	04c000f4 	movhi	r19,3
   22834:	9cfbc004 	addi	r19,r19,-4352
   22838:	2105883a 	add	r2,r4,r4
   2283c:	1085883a 	add	r2,r2,r2
   22840:	1085883a 	add	r2,r2,r2
   22844:	9885883a 	add	r2,r19,r2
   22848:	14000317 	ldw	r16,12(r2)
   2284c:	80815526 	beq	r16,r2,22da4 <_malloc_r+0x5d4>
   22850:	81000117 	ldw	r4,4(r16)
   22854:	00bfff04 	movi	r2,-4
   22858:	80c00317 	ldw	r3,12(r16)
   2285c:	2084703a 	and	r2,r4,r2
   22860:	8085883a 	add	r2,r16,r2
   22864:	11800117 	ldw	r6,4(r2)
   22868:	81400217 	ldw	r5,8(r16)
   2286c:	9009883a 	mov	r4,r18
   22870:	31800054 	ori	r6,r6,1
   22874:	11800115 	stw	r6,4(r2)
   22878:	28c00315 	stw	r3,12(r5)
   2287c:	19400215 	stw	r5,8(r3)
   22880:	002b9c40 	call	2b9c4 <__malloc_unlock>
   22884:	80800204 	addi	r2,r16,8
   22888:	dfc00917 	ldw	ra,36(sp)
   2288c:	df000817 	ldw	fp,32(sp)
   22890:	ddc00717 	ldw	r23,28(sp)
   22894:	dd800617 	ldw	r22,24(sp)
   22898:	dd400517 	ldw	r21,20(sp)
   2289c:	dd000417 	ldw	r20,16(sp)
   228a0:	dcc00317 	ldw	r19,12(sp)
   228a4:	dc800217 	ldw	r18,8(sp)
   228a8:	dc400117 	ldw	r17,4(sp)
   228ac:	dc000017 	ldw	r16,0(sp)
   228b0:	dec00a04 	addi	sp,sp,40
   228b4:	f800283a 	ret
   228b8:	04400404 	movi	r17,16
   228bc:	897fd72e 	bgeu	r17,r5,2281c <_malloc_r+0x4c>
   228c0:	00800304 	movi	r2,12
   228c4:	90800015 	stw	r2,0(r18)
   228c8:	0005883a 	mov	r2,zero
   228cc:	003fee06 	br	22888 <_malloc_r+0xb8>
   228d0:	8808d27a 	srli	r4,r17,9
   228d4:	20007126 	beq	r4,zero,22a9c <_malloc_r+0x2cc>
   228d8:	00800104 	movi	r2,4
   228dc:	1100eb36 	bltu	r2,r4,22c8c <_malloc_r+0x4bc>
   228e0:	8808d1ba 	srli	r4,r17,6
   228e4:	21000e04 	addi	r4,r4,56
   228e8:	210b883a 	add	r5,r4,r4
   228ec:	294b883a 	add	r5,r5,r5
   228f0:	294b883a 	add	r5,r5,r5
   228f4:	04c000f4 	movhi	r19,3
   228f8:	9cfbc004 	addi	r19,r19,-4352
   228fc:	994b883a 	add	r5,r19,r5
   22900:	2c000317 	ldw	r16,12(r5)
   22904:	2c000e26 	beq	r5,r16,22940 <_malloc_r+0x170>
   22908:	80c00117 	ldw	r3,4(r16)
   2290c:	01ffff04 	movi	r7,-4
   22910:	018003c4 	movi	r6,15
   22914:	19c6703a 	and	r3,r3,r7
   22918:	1c45c83a 	sub	r2,r3,r17
   2291c:	30800716 	blt	r6,r2,2293c <_malloc_r+0x16c>
   22920:	1000610e 	bge	r2,zero,22aa8 <_malloc_r+0x2d8>
   22924:	84000317 	ldw	r16,12(r16)
   22928:	2c000526 	beq	r5,r16,22940 <_malloc_r+0x170>
   2292c:	80c00117 	ldw	r3,4(r16)
   22930:	19c6703a 	and	r3,r3,r7
   22934:	1c45c83a 	sub	r2,r3,r17
   22938:	30bff90e 	bge	r6,r2,22920 <_malloc_r+0x150>
   2293c:	213fffc4 	addi	r4,r4,-1
   22940:	21000044 	addi	r4,r4,1
   22944:	9c000417 	ldw	r16,16(r19)
   22948:	00c000f4 	movhi	r3,3
   2294c:	18fbc004 	addi	r3,r3,-4352
   22950:	1a400204 	addi	r9,r3,8
   22954:	8240ff26 	beq	r16,r9,22d54 <_malloc_r+0x584>
   22958:	81400117 	ldw	r5,4(r16)
   2295c:	00bfff04 	movi	r2,-4
   22960:	018003c4 	movi	r6,15
   22964:	2884703a 	and	r2,r5,r2
   22968:	144bc83a 	sub	r5,r2,r17
   2296c:	3140ea16 	blt	r6,r5,22d18 <_malloc_r+0x548>
   22970:	1a400515 	stw	r9,20(r3)
   22974:	1a400415 	stw	r9,16(r3)
   22978:	2800570e 	bge	r5,zero,22ad8 <_malloc_r+0x308>
   2297c:	01407fc4 	movi	r5,511
   22980:	2880ca36 	bltu	r5,r2,22cac <_malloc_r+0x4dc>
   22984:	1004d0fa 	srli	r2,r2,3
   22988:	02000044 	movi	r8,1
   2298c:	19c00117 	ldw	r7,4(r3)
   22990:	108b883a 	add	r5,r2,r2
   22994:	294b883a 	add	r5,r5,r5
   22998:	1005d0ba 	srai	r2,r2,2
   2299c:	294b883a 	add	r5,r5,r5
   229a0:	28cb883a 	add	r5,r5,r3
   229a4:	29800217 	ldw	r6,8(r5)
   229a8:	4084983a 	sll	r2,r8,r2
   229ac:	81400315 	stw	r5,12(r16)
   229b0:	81800215 	stw	r6,8(r16)
   229b4:	11c4b03a 	or	r2,r2,r7
   229b8:	18800115 	stw	r2,4(r3)
   229bc:	2c000215 	stw	r16,8(r5)
   229c0:	34000315 	stw	r16,12(r6)
   229c4:	200bd0ba 	srai	r5,r4,2
   229c8:	00c00044 	movi	r3,1
   229cc:	194a983a 	sll	r5,r3,r5
   229d0:	11404936 	bltu	r2,r5,22af8 <_malloc_r+0x328>
   229d4:	1146703a 	and	r3,r2,r5
   229d8:	18000a1e 	bne	r3,zero,22a04 <_malloc_r+0x234>
   229dc:	00ffff04 	movi	r3,-4
   229e0:	294b883a 	add	r5,r5,r5
   229e4:	20c8703a 	and	r4,r4,r3
   229e8:	1146703a 	and	r3,r2,r5
   229ec:	21000104 	addi	r4,r4,4
   229f0:	1800041e 	bne	r3,zero,22a04 <_malloc_r+0x234>
   229f4:	294b883a 	add	r5,r5,r5
   229f8:	1146703a 	and	r3,r2,r5
   229fc:	21000104 	addi	r4,r4,4
   22a00:	183ffc26 	beq	r3,zero,229f4 <_malloc_r+0x224>
   22a04:	023fff04 	movi	r8,-4
   22a08:	01c003c4 	movi	r7,15
   22a0c:	2105883a 	add	r2,r4,r4
   22a10:	1085883a 	add	r2,r2,r2
   22a14:	1085883a 	add	r2,r2,r2
   22a18:	9899883a 	add	r12,r19,r2
   22a1c:	62800304 	addi	r10,r12,12
   22a20:	2017883a 	mov	r11,r4
   22a24:	54000017 	ldw	r16,0(r10)
   22a28:	51bffd04 	addi	r6,r10,-12
   22a2c:	8180041e 	bne	r16,r6,22a40 <_malloc_r+0x270>
   22a30:	0000ca06 	br	22d5c <_malloc_r+0x58c>
   22a34:	10001c0e 	bge	r2,zero,22aa8 <_malloc_r+0x2d8>
   22a38:	84000317 	ldw	r16,12(r16)
   22a3c:	8180c726 	beq	r16,r6,22d5c <_malloc_r+0x58c>
   22a40:	80c00117 	ldw	r3,4(r16)
   22a44:	1a06703a 	and	r3,r3,r8
   22a48:	1c45c83a 	sub	r2,r3,r17
   22a4c:	38bff90e 	bge	r7,r2,22a34 <_malloc_r+0x264>
   22a50:	81000317 	ldw	r4,12(r16)
   22a54:	81400217 	ldw	r5,8(r16)
   22a58:	8447883a 	add	r3,r16,r17
   22a5c:	8c400054 	ori	r17,r17,1
   22a60:	29000315 	stw	r4,12(r5)
   22a64:	21400215 	stw	r5,8(r4)
   22a68:	84400115 	stw	r17,4(r16)
   22a6c:	1889883a 	add	r4,r3,r2
   22a70:	11400054 	ori	r5,r2,1
   22a74:	98c00515 	stw	r3,20(r19)
   22a78:	98c00415 	stw	r3,16(r19)
   22a7c:	20800015 	stw	r2,0(r4)
   22a80:	1a400315 	stw	r9,12(r3)
   22a84:	1a400215 	stw	r9,8(r3)
   22a88:	19400115 	stw	r5,4(r3)
   22a8c:	9009883a 	mov	r4,r18
   22a90:	002b9c40 	call	2b9c4 <__malloc_unlock>
   22a94:	80800204 	addi	r2,r16,8
   22a98:	003f7b06 	br	22888 <_malloc_r+0xb8>
   22a9c:	8808d0fa 	srli	r4,r17,3
   22aa0:	210b883a 	add	r5,r4,r4
   22aa4:	003f9106 	br	228ec <_malloc_r+0x11c>
   22aa8:	80c7883a 	add	r3,r16,r3
   22aac:	19400117 	ldw	r5,4(r3)
   22ab0:	80800317 	ldw	r2,12(r16)
   22ab4:	81000217 	ldw	r4,8(r16)
   22ab8:	29400054 	ori	r5,r5,1
   22abc:	19400115 	stw	r5,4(r3)
   22ac0:	20800315 	stw	r2,12(r4)
   22ac4:	11000215 	stw	r4,8(r2)
   22ac8:	9009883a 	mov	r4,r18
   22acc:	002b9c40 	call	2b9c4 <__malloc_unlock>
   22ad0:	80800204 	addi	r2,r16,8
   22ad4:	003f6c06 	br	22888 <_malloc_r+0xb8>
   22ad8:	8085883a 	add	r2,r16,r2
   22adc:	10c00117 	ldw	r3,4(r2)
   22ae0:	9009883a 	mov	r4,r18
   22ae4:	18c00054 	ori	r3,r3,1
   22ae8:	10c00115 	stw	r3,4(r2)
   22aec:	002b9c40 	call	2b9c4 <__malloc_unlock>
   22af0:	80800204 	addi	r2,r16,8
   22af4:	003f6406 	br	22888 <_malloc_r+0xb8>
   22af8:	9c000217 	ldw	r16,8(r19)
   22afc:	00bfff04 	movi	r2,-4
   22b00:	85400117 	ldw	r21,4(r16)
   22b04:	a8aa703a 	and	r21,r21,r2
   22b08:	ac400336 	bltu	r21,r17,22b18 <_malloc_r+0x348>
   22b0c:	ac45c83a 	sub	r2,r21,r17
   22b10:	00c003c4 	movi	r3,15
   22b14:	18805316 	blt	r3,r2,22c64 <_malloc_r+0x494>
   22b18:	d5e6d617 	ldw	r23,-25768(gp)
   22b1c:	d0e00217 	ldw	r3,-32760(gp)
   22b20:	00bfffc4 	movi	r2,-1
   22b24:	8579883a 	add	fp,r16,r21
   22b28:	8def883a 	add	r23,r17,r23
   22b2c:	1880d226 	beq	r3,r2,22e78 <_malloc_r+0x6a8>
   22b30:	bdc403c4 	addi	r23,r23,4111
   22b34:	00bc0004 	movi	r2,-4096
   22b38:	b8ae703a 	and	r23,r23,r2
   22b3c:	9009883a 	mov	r4,r18
   22b40:	b80b883a 	mov	r5,r23
   22b44:	00234e40 	call	234e4 <_sbrk_r>
   22b48:	1029883a 	mov	r20,r2
   22b4c:	00bfffc4 	movi	r2,-1
   22b50:	a080d126 	beq	r20,r2,22e98 <_malloc_r+0x6c8>
   22b54:	a7009f36 	bltu	r20,fp,22dd4 <_malloc_r+0x604>
   22b58:	058000f4 	movhi	r22,3
   22b5c:	b5883104 	addi	r22,r22,8388
   22b60:	b0800017 	ldw	r2,0(r22)
   22b64:	b885883a 	add	r2,r23,r2
   22b68:	b0800015 	stw	r2,0(r22)
   22b6c:	e500cf26 	beq	fp,r20,22eac <_malloc_r+0x6dc>
   22b70:	d1200217 	ldw	r4,-32760(gp)
   22b74:	00ffffc4 	movi	r3,-1
   22b78:	20c0e026 	beq	r4,r3,22efc <_malloc_r+0x72c>
   22b7c:	a739c83a 	sub	fp,r20,fp
   22b80:	1705883a 	add	r2,r2,fp
   22b84:	b0800015 	stw	r2,0(r22)
   22b88:	a08001cc 	andi	r2,r20,7
   22b8c:	1000a526 	beq	r2,zero,22e24 <_malloc_r+0x654>
   22b90:	a0a9c83a 	sub	r20,r20,r2
   22b94:	00c40204 	movi	r3,4104
   22b98:	a5000204 	addi	r20,r20,8
   22b9c:	1885c83a 	sub	r2,r3,r2
   22ba0:	a5c7883a 	add	r3,r20,r23
   22ba4:	18c3ffcc 	andi	r3,r3,4095
   22ba8:	10efc83a 	sub	r23,r2,r3
   22bac:	9009883a 	mov	r4,r18
   22bb0:	b80b883a 	mov	r5,r23
   22bb4:	00234e40 	call	234e4 <_sbrk_r>
   22bb8:	00ffffc4 	movi	r3,-1
   22bbc:	10c0cc26 	beq	r2,r3,22ef0 <_malloc_r+0x720>
   22bc0:	1505c83a 	sub	r2,r2,r20
   22bc4:	b887883a 	add	r3,r23,r2
   22bc8:	18c00054 	ori	r3,r3,1
   22bcc:	b0800017 	ldw	r2,0(r22)
   22bd0:	9d000215 	stw	r20,8(r19)
   22bd4:	a0c00115 	stw	r3,4(r20)
   22bd8:	b885883a 	add	r2,r23,r2
   22bdc:	b0800015 	stw	r2,0(r22)
   22be0:	84c00e26 	beq	r16,r19,22c1c <_malloc_r+0x44c>
   22be4:	00c003c4 	movi	r3,15
   22be8:	1d40902e 	bgeu	r3,r21,22e2c <_malloc_r+0x65c>
   22bec:	ad7ffd04 	addi	r21,r21,-12
   22bf0:	013ffe04 	movi	r4,-8
   22bf4:	a908703a 	and	r4,r21,r4
   22bf8:	810b883a 	add	r5,r16,r4
   22bfc:	01800144 	movi	r6,5
   22c00:	29800115 	stw	r6,4(r5)
   22c04:	29800215 	stw	r6,8(r5)
   22c08:	81400117 	ldw	r5,4(r16)
   22c0c:	2940004c 	andi	r5,r5,1
   22c10:	214ab03a 	or	r5,r4,r5
   22c14:	81400115 	stw	r5,4(r16)
   22c18:	1900ae36 	bltu	r3,r4,22ed4 <_malloc_r+0x704>
   22c1c:	d0e6d517 	ldw	r3,-25772(gp)
   22c20:	1880012e 	bgeu	r3,r2,22c28 <_malloc_r+0x458>
   22c24:	d0a6d515 	stw	r2,-25772(gp)
   22c28:	d0e6d417 	ldw	r3,-25776(gp)
   22c2c:	9c000217 	ldw	r16,8(r19)
   22c30:	1880012e 	bgeu	r3,r2,22c38 <_malloc_r+0x468>
   22c34:	d0a6d415 	stw	r2,-25776(gp)
   22c38:	80c00117 	ldw	r3,4(r16)
   22c3c:	00bfff04 	movi	r2,-4
   22c40:	1886703a 	and	r3,r3,r2
   22c44:	1c45c83a 	sub	r2,r3,r17
   22c48:	1c400236 	bltu	r3,r17,22c54 <_malloc_r+0x484>
   22c4c:	00c003c4 	movi	r3,15
   22c50:	18800416 	blt	r3,r2,22c64 <_malloc_r+0x494>
   22c54:	9009883a 	mov	r4,r18
   22c58:	002b9c40 	call	2b9c4 <__malloc_unlock>
   22c5c:	0005883a 	mov	r2,zero
   22c60:	003f0906 	br	22888 <_malloc_r+0xb8>
   22c64:	88c00054 	ori	r3,r17,1
   22c68:	10800054 	ori	r2,r2,1
   22c6c:	80c00115 	stw	r3,4(r16)
   22c70:	8463883a 	add	r17,r16,r17
   22c74:	88800115 	stw	r2,4(r17)
   22c78:	9009883a 	mov	r4,r18
   22c7c:	9c400215 	stw	r17,8(r19)
   22c80:	002b9c40 	call	2b9c4 <__malloc_unlock>
   22c84:	80800204 	addi	r2,r16,8
   22c88:	003eff06 	br	22888 <_malloc_r+0xb8>
   22c8c:	00800504 	movi	r2,20
   22c90:	1100492e 	bgeu	r2,r4,22db8 <_malloc_r+0x5e8>
   22c94:	00801504 	movi	r2,84
   22c98:	11005c36 	bltu	r2,r4,22e0c <_malloc_r+0x63c>
   22c9c:	8808d33a 	srli	r4,r17,12
   22ca0:	21001b84 	addi	r4,r4,110
   22ca4:	210b883a 	add	r5,r4,r4
   22ca8:	003f1006 	br	228ec <_malloc_r+0x11c>
   22cac:	1006d27a 	srli	r3,r2,9
   22cb0:	01400104 	movi	r5,4
   22cb4:	28c0432e 	bgeu	r5,r3,22dc4 <_malloc_r+0x5f4>
   22cb8:	01400504 	movi	r5,20
   22cbc:	28c07036 	bltu	r5,r3,22e80 <_malloc_r+0x6b0>
   22cc0:	194016c4 	addi	r5,r3,91
   22cc4:	294d883a 	add	r6,r5,r5
   22cc8:	318d883a 	add	r6,r6,r6
   22ccc:	318d883a 	add	r6,r6,r6
   22cd0:	998d883a 	add	r6,r19,r6
   22cd4:	30c00217 	ldw	r3,8(r6)
   22cd8:	01c000f4 	movhi	r7,3
   22cdc:	39fbc004 	addi	r7,r7,-4352
   22ce0:	19805726 	beq	r3,r6,22e40 <_malloc_r+0x670>
   22ce4:	01ffff04 	movi	r7,-4
   22ce8:	19400117 	ldw	r5,4(r3)
   22cec:	29ca703a 	and	r5,r5,r7
   22cf0:	1140022e 	bgeu	r2,r5,22cfc <_malloc_r+0x52c>
   22cf4:	18c00217 	ldw	r3,8(r3)
   22cf8:	30fffb1e 	bne	r6,r3,22ce8 <_malloc_r+0x518>
   22cfc:	19400317 	ldw	r5,12(r3)
   22d00:	98800117 	ldw	r2,4(r19)
   22d04:	81400315 	stw	r5,12(r16)
   22d08:	80c00215 	stw	r3,8(r16)
   22d0c:	2c000215 	stw	r16,8(r5)
   22d10:	1c000315 	stw	r16,12(r3)
   22d14:	003f2b06 	br	229c4 <_malloc_r+0x1f4>
   22d18:	8445883a 	add	r2,r16,r17
   22d1c:	8c400054 	ori	r17,r17,1
   22d20:	18800515 	stw	r2,20(r3)
   22d24:	18800415 	stw	r2,16(r3)
   22d28:	29000054 	ori	r4,r5,1
   22d2c:	1147883a 	add	r3,r2,r5
   22d30:	84400115 	stw	r17,4(r16)
   22d34:	11000115 	stw	r4,4(r2)
   22d38:	12400315 	stw	r9,12(r2)
   22d3c:	12400215 	stw	r9,8(r2)
   22d40:	19400015 	stw	r5,0(r3)
   22d44:	9009883a 	mov	r4,r18
   22d48:	002b9c40 	call	2b9c4 <__malloc_unlock>
   22d4c:	80800204 	addi	r2,r16,8
   22d50:	003ecd06 	br	22888 <_malloc_r+0xb8>
   22d54:	18800117 	ldw	r2,4(r3)
   22d58:	003f1a06 	br	229c4 <_malloc_r+0x1f4>
   22d5c:	5ac00044 	addi	r11,r11,1
   22d60:	588000cc 	andi	r2,r11,3
   22d64:	52800204 	addi	r10,r10,8
   22d68:	103f2e1e 	bne	r2,zero,22a24 <_malloc_r+0x254>
   22d6c:	20c000cc 	andi	r3,r4,3
   22d70:	60bffe04 	addi	r2,r12,-8
   22d74:	18006f26 	beq	r3,zero,22f34 <_malloc_r+0x764>
   22d78:	63000017 	ldw	r12,0(r12)
   22d7c:	213fffc4 	addi	r4,r4,-1
   22d80:	60bffa26 	beq	r12,r2,22d6c <_malloc_r+0x59c>
   22d84:	98800117 	ldw	r2,4(r19)
   22d88:	294b883a 	add	r5,r5,r5
   22d8c:	117f5a36 	bltu	r2,r5,22af8 <_malloc_r+0x328>
   22d90:	283f5926 	beq	r5,zero,22af8 <_malloc_r+0x328>
   22d94:	1146703a 	and	r3,r2,r5
   22d98:	18001626 	beq	r3,zero,22df4 <_malloc_r+0x624>
   22d9c:	5809883a 	mov	r4,r11
   22da0:	003f1a06 	br	22a0c <_malloc_r+0x23c>
   22da4:	80800204 	addi	r2,r16,8
   22da8:	84000517 	ldw	r16,20(r16)
   22dac:	143ea81e 	bne	r2,r16,22850 <_malloc_r+0x80>
   22db0:	21000084 	addi	r4,r4,2
   22db4:	003ee306 	br	22944 <_malloc_r+0x174>
   22db8:	210016c4 	addi	r4,r4,91
   22dbc:	210b883a 	add	r5,r4,r4
   22dc0:	003eca06 	br	228ec <_malloc_r+0x11c>
   22dc4:	100ad1ba 	srli	r5,r2,6
   22dc8:	29400e04 	addi	r5,r5,56
   22dcc:	294d883a 	add	r6,r5,r5
   22dd0:	003fbd06 	br	22cc8 <_malloc_r+0x4f8>
   22dd4:	84ff6026 	beq	r16,r19,22b58 <_malloc_r+0x388>
   22dd8:	008000f4 	movhi	r2,3
   22ddc:	10bbc004 	addi	r2,r2,-4352
   22de0:	14000217 	ldw	r16,8(r2)
   22de4:	00bfff04 	movi	r2,-4
   22de8:	80c00117 	ldw	r3,4(r16)
   22dec:	1886703a 	and	r3,r3,r2
   22df0:	003f9406 	br	22c44 <_malloc_r+0x474>
   22df4:	294b883a 	add	r5,r5,r5
   22df8:	1146703a 	and	r3,r2,r5
   22dfc:	5ac00104 	addi	r11,r11,4
   22e00:	183ffc26 	beq	r3,zero,22df4 <_malloc_r+0x624>
   22e04:	5809883a 	mov	r4,r11
   22e08:	003f0006 	br	22a0c <_malloc_r+0x23c>
   22e0c:	00805504 	movi	r2,340
   22e10:	11001336 	bltu	r2,r4,22e60 <_malloc_r+0x690>
   22e14:	8808d3fa 	srli	r4,r17,15
   22e18:	21001dc4 	addi	r4,r4,119
   22e1c:	210b883a 	add	r5,r4,r4
   22e20:	003eb206 	br	228ec <_malloc_r+0x11c>
   22e24:	00840004 	movi	r2,4096
   22e28:	003f5d06 	br	22ba0 <_malloc_r+0x3d0>
   22e2c:	00800044 	movi	r2,1
   22e30:	a0800115 	stw	r2,4(r20)
   22e34:	a021883a 	mov	r16,r20
   22e38:	0007883a 	mov	r3,zero
   22e3c:	003f8106 	br	22c44 <_malloc_r+0x474>
   22e40:	280bd0ba 	srai	r5,r5,2
   22e44:	01800044 	movi	r6,1
   22e48:	38800117 	ldw	r2,4(r7)
   22e4c:	314c983a 	sll	r6,r6,r5
   22e50:	180b883a 	mov	r5,r3
   22e54:	3084b03a 	or	r2,r6,r2
   22e58:	38800115 	stw	r2,4(r7)
   22e5c:	003fa906 	br	22d04 <_malloc_r+0x534>
   22e60:	00815504 	movi	r2,1364
   22e64:	11001836 	bltu	r2,r4,22ec8 <_malloc_r+0x6f8>
   22e68:	8808d4ba 	srli	r4,r17,18
   22e6c:	21001f04 	addi	r4,r4,124
   22e70:	210b883a 	add	r5,r4,r4
   22e74:	003e9d06 	br	228ec <_malloc_r+0x11c>
   22e78:	bdc00404 	addi	r23,r23,16
   22e7c:	003f2f06 	br	22b3c <_malloc_r+0x36c>
   22e80:	01401504 	movi	r5,84
   22e84:	28c01f36 	bltu	r5,r3,22f04 <_malloc_r+0x734>
   22e88:	100ad33a 	srli	r5,r2,12
   22e8c:	29401b84 	addi	r5,r5,110
   22e90:	294d883a 	add	r6,r5,r5
   22e94:	003f8c06 	br	22cc8 <_malloc_r+0x4f8>
   22e98:	9c000217 	ldw	r16,8(r19)
   22e9c:	00bfff04 	movi	r2,-4
   22ea0:	80c00117 	ldw	r3,4(r16)
   22ea4:	1886703a 	and	r3,r3,r2
   22ea8:	003f6606 	br	22c44 <_malloc_r+0x474>
   22eac:	e0c3ffcc 	andi	r3,fp,4095
   22eb0:	183f2f1e 	bne	r3,zero,22b70 <_malloc_r+0x3a0>
   22eb4:	98c00217 	ldw	r3,8(r19)
   22eb8:	bd49883a 	add	r4,r23,r21
   22ebc:	21000054 	ori	r4,r4,1
   22ec0:	19000115 	stw	r4,4(r3)
   22ec4:	003f5506 	br	22c1c <_malloc_r+0x44c>
   22ec8:	01403f04 	movi	r5,252
   22ecc:	01001f84 	movi	r4,126
   22ed0:	003e8606 	br	228ec <_malloc_r+0x11c>
   22ed4:	9009883a 	mov	r4,r18
   22ed8:	81400204 	addi	r5,r16,8
   22edc:	0021be00 	call	21be0 <_free_r>
   22ee0:	008000f4 	movhi	r2,3
   22ee4:	10883104 	addi	r2,r2,8388
   22ee8:	10800017 	ldw	r2,0(r2)
   22eec:	003f4b06 	br	22c1c <_malloc_r+0x44c>
   22ef0:	00c00044 	movi	r3,1
   22ef4:	002f883a 	mov	r23,zero
   22ef8:	003f3406 	br	22bcc <_malloc_r+0x3fc>
   22efc:	d5200215 	stw	r20,-32760(gp)
   22f00:	003f2106 	br	22b88 <_malloc_r+0x3b8>
   22f04:	01405504 	movi	r5,340
   22f08:	28c00436 	bltu	r5,r3,22f1c <_malloc_r+0x74c>
   22f0c:	100ad3fa 	srli	r5,r2,15
   22f10:	29401dc4 	addi	r5,r5,119
   22f14:	294d883a 	add	r6,r5,r5
   22f18:	003f6b06 	br	22cc8 <_malloc_r+0x4f8>
   22f1c:	01415504 	movi	r5,1364
   22f20:	28c00936 	bltu	r5,r3,22f48 <_malloc_r+0x778>
   22f24:	100ad4ba 	srli	r5,r2,18
   22f28:	29401f04 	addi	r5,r5,124
   22f2c:	294d883a 	add	r6,r5,r5
   22f30:	003f6506 	br	22cc8 <_malloc_r+0x4f8>
   22f34:	98800117 	ldw	r2,4(r19)
   22f38:	0146303a 	nor	r3,zero,r5
   22f3c:	1884703a 	and	r2,r3,r2
   22f40:	98800115 	stw	r2,4(r19)
   22f44:	003f9006 	br	22d88 <_malloc_r+0x5b8>
   22f48:	01803f04 	movi	r6,252
   22f4c:	01401f84 	movi	r5,126
   22f50:	003f5d06 	br	22cc8 <_malloc_r+0x4f8>

00022f54 <memcpy>:
   22f54:	defffb04 	addi	sp,sp,-20
   22f58:	dc000015 	stw	r16,0(sp)
   22f5c:	dfc00415 	stw	ra,16(sp)
   22f60:	dcc00315 	stw	r19,12(sp)
   22f64:	dc800215 	stw	r18,8(sp)
   22f68:	dc400115 	stw	r17,4(sp)
   22f6c:	00c003c4 	movi	r3,15
   22f70:	2021883a 	mov	r16,r4
   22f74:	3005883a 	mov	r2,r6
   22f78:	1980032e 	bgeu	r3,r6,22f88 <memcpy+0x34>
   22f7c:	2906b03a 	or	r3,r5,r4
   22f80:	18c000cc 	andi	r3,r3,3
   22f84:	18001026 	beq	r3,zero,22fc8 <memcpy+0x74>
   22f88:	8007883a 	mov	r3,r16
   22f8c:	288f883a 	add	r7,r5,r2
   22f90:	10000526 	beq	r2,zero,22fa8 <memcpy+0x54>
   22f94:	29800003 	ldbu	r6,0(r5)
   22f98:	18c00044 	addi	r3,r3,1
   22f9c:	29400044 	addi	r5,r5,1
   22fa0:	19bfffc5 	stb	r6,-1(r3)
   22fa4:	29fffb1e 	bne	r5,r7,22f94 <memcpy+0x40>
   22fa8:	8005883a 	mov	r2,r16
   22fac:	dfc00417 	ldw	ra,16(sp)
   22fb0:	dcc00317 	ldw	r19,12(sp)
   22fb4:	dc800217 	ldw	r18,8(sp)
   22fb8:	dc400117 	ldw	r17,4(sp)
   22fbc:	dc000017 	ldw	r16,0(sp)
   22fc0:	dec00504 	addi	sp,sp,20
   22fc4:	f800283a 	ret
   22fc8:	32bffc04 	addi	r10,r6,-16
   22fcc:	5014d13a 	srli	r10,r10,4
   22fd0:	20800404 	addi	r2,r4,16
   22fd4:	2007883a 	mov	r3,r4
   22fd8:	5008913a 	slli	r4,r10,4
   22fdc:	280f883a 	mov	r7,r5
   22fe0:	1105883a 	add	r2,r2,r4
   22fe4:	3a000017 	ldw	r8,0(r7)
   22fe8:	18c00404 	addi	r3,r3,16
   22fec:	39c00404 	addi	r7,r7,16
   22ff0:	1a3ffc15 	stw	r8,-16(r3)
   22ff4:	3a3ffd17 	ldw	r8,-12(r7)
   22ff8:	1a3ffd15 	stw	r8,-12(r3)
   22ffc:	3a3ffe17 	ldw	r8,-8(r7)
   23000:	1a3ffe15 	stw	r8,-8(r3)
   23004:	3a3fff17 	ldw	r8,-4(r7)
   23008:	1a3fff15 	stw	r8,-4(r3)
   2300c:	18bff51e 	bne	r3,r2,22fe4 <memcpy+0x90>
   23010:	52800044 	addi	r10,r10,1
   23014:	5014913a 	slli	r10,r10,4
   23018:	308003cc 	andi	r2,r6,15
   2301c:	010000c4 	movi	r4,3
   23020:	8287883a 	add	r3,r16,r10
   23024:	2a95883a 	add	r10,r5,r10
   23028:	2080182e 	bgeu	r4,r2,2308c <memcpy+0x138>
   2302c:	147fff04 	addi	r17,r2,-4
   23030:	8808d0ba 	srli	r4,r17,2
   23034:	1a400104 	addi	r9,r3,4
   23038:	180d883a 	mov	r6,r3
   2303c:	2105883a 	add	r2,r4,r4
   23040:	1085883a 	add	r2,r2,r2
   23044:	4893883a 	add	r9,r9,r2
   23048:	500f883a 	mov	r7,r10
   2304c:	3a000017 	ldw	r8,0(r7)
   23050:	31800104 	addi	r6,r6,4
   23054:	39c00104 	addi	r7,r7,4
   23058:	323fff15 	stw	r8,-4(r6)
   2305c:	327ffb1e 	bne	r6,r9,2304c <memcpy+0xf8>
   23060:	20800044 	addi	r2,r4,1
   23064:	1085883a 	add	r2,r2,r2
   23068:	1085883a 	add	r2,r2,r2
   2306c:	017fff04 	movi	r5,-4
   23070:	18a5883a 	add	r18,r3,r2
   23074:	50a7883a 	add	r19,r10,r2
   23078:	00210140 	call	21014 <__mulsi3>
   2307c:	1445883a 	add	r2,r2,r17
   23080:	980b883a 	mov	r5,r19
   23084:	9007883a 	mov	r3,r18
   23088:	003fc006 	br	22f8c <memcpy+0x38>
   2308c:	500b883a 	mov	r5,r10
   23090:	003fbe06 	br	22f8c <memcpy+0x38>

00023094 <memset>:
   23094:	00c000c4 	movi	r3,3
   23098:	2005883a 	mov	r2,r4
   2309c:	29403fcc 	andi	r5,r5,255
   230a0:	19802d2e 	bgeu	r3,r6,23158 <memset+0xc4>
   230a4:	20c6703a 	and	r3,r4,r3
   230a8:	18002e1e 	bne	r3,zero,23164 <memset+0xd0>
   230ac:	2806923a 	slli	r3,r5,8
   230b0:	010003c4 	movi	r4,15
   230b4:	3011883a 	mov	r8,r6
   230b8:	1946b03a 	or	r3,r3,r5
   230bc:	180e943a 	slli	r7,r3,16
   230c0:	38ceb03a 	or	r7,r7,r3
   230c4:	1007883a 	mov	r3,r2
   230c8:	21800f2e 	bgeu	r4,r6,23108 <memset+0x74>
   230cc:	19c00015 	stw	r7,0(r3)
   230d0:	19c00115 	stw	r7,4(r3)
   230d4:	19c00215 	stw	r7,8(r3)
   230d8:	19c00315 	stw	r7,12(r3)
   230dc:	423ffc04 	addi	r8,r8,-16
   230e0:	18c00404 	addi	r3,r3,16
   230e4:	223ff936 	bltu	r4,r8,230cc <memset+0x38>
   230e8:	30fffc04 	addi	r3,r6,-16
   230ec:	1806d13a 	srli	r3,r3,4
   230f0:	318003cc 	andi	r6,r6,15
   230f4:	010000c4 	movi	r4,3
   230f8:	18c00044 	addi	r3,r3,1
   230fc:	1806913a 	slli	r3,r3,4
   23100:	10c7883a 	add	r3,r2,r3
   23104:	21800e2e 	bgeu	r4,r6,23140 <memset+0xac>
   23108:	1813883a 	mov	r9,r3
   2310c:	3011883a 	mov	r8,r6
   23110:	010000c4 	movi	r4,3
   23114:	49c00015 	stw	r7,0(r9)
   23118:	423fff04 	addi	r8,r8,-4
   2311c:	4a400104 	addi	r9,r9,4
   23120:	223ffc36 	bltu	r4,r8,23114 <memset+0x80>
   23124:	313fff04 	addi	r4,r6,-4
   23128:	2008d0ba 	srli	r4,r4,2
   2312c:	318000cc 	andi	r6,r6,3
   23130:	21000044 	addi	r4,r4,1
   23134:	2109883a 	add	r4,r4,r4
   23138:	2109883a 	add	r4,r4,r4
   2313c:	1907883a 	add	r3,r3,r4
   23140:	30000a26 	beq	r6,zero,2316c <memset+0xd8>
   23144:	198d883a 	add	r6,r3,r6
   23148:	19400005 	stb	r5,0(r3)
   2314c:	18c00044 	addi	r3,r3,1
   23150:	19bffd1e 	bne	r3,r6,23148 <memset+0xb4>
   23154:	f800283a 	ret
   23158:	2007883a 	mov	r3,r4
   2315c:	303ff91e 	bne	r6,zero,23144 <memset+0xb0>
   23160:	00000206 	br	2316c <memset+0xd8>
   23164:	2007883a 	mov	r3,r4
   23168:	003ff606 	br	23144 <memset+0xb0>
   2316c:	f800283a 	ret

00023170 <_open_r>:
   23170:	defffd04 	addi	sp,sp,-12
   23174:	dc400115 	stw	r17,4(sp)
   23178:	dc000015 	stw	r16,0(sp)
   2317c:	2023883a 	mov	r17,r4
   23180:	040000f4 	movhi	r16,3
   23184:	84082404 	addi	r16,r16,8336
   23188:	2809883a 	mov	r4,r5
   2318c:	300b883a 	mov	r5,r6
   23190:	380d883a 	mov	r6,r7
   23194:	dfc00215 	stw	ra,8(sp)
   23198:	80000015 	stw	zero,0(r16)
   2319c:	002bb240 	call	2bb24 <open>
   231a0:	00ffffc4 	movi	r3,-1
   231a4:	10c00526 	beq	r2,r3,231bc <_open_r+0x4c>
   231a8:	dfc00217 	ldw	ra,8(sp)
   231ac:	dc400117 	ldw	r17,4(sp)
   231b0:	dc000017 	ldw	r16,0(sp)
   231b4:	dec00304 	addi	sp,sp,12
   231b8:	f800283a 	ret
   231bc:	80c00017 	ldw	r3,0(r16)
   231c0:	183ff926 	beq	r3,zero,231a8 <_open_r+0x38>
   231c4:	88c00015 	stw	r3,0(r17)
   231c8:	dfc00217 	ldw	ra,8(sp)
   231cc:	dc400117 	ldw	r17,4(sp)
   231d0:	dc000017 	ldw	r16,0(sp)
   231d4:	dec00304 	addi	sp,sp,12
   231d8:	f800283a 	ret

000231dc <_printf_r>:
   231dc:	defffd04 	addi	sp,sp,-12
   231e0:	dfc00015 	stw	ra,0(sp)
   231e4:	d9800115 	stw	r6,4(sp)
   231e8:	d9c00215 	stw	r7,8(sp)
   231ec:	280d883a 	mov	r6,r5
   231f0:	21400217 	ldw	r5,8(r4)
   231f4:	d9c00104 	addi	r7,sp,4
   231f8:	00237480 	call	23748 <___vfprintf_internal_r>
   231fc:	dfc00017 	ldw	ra,0(sp)
   23200:	dec00304 	addi	sp,sp,12
   23204:	f800283a 	ret

00023208 <printf>:
   23208:	defffc04 	addi	sp,sp,-16
   2320c:	dfc00015 	stw	ra,0(sp)
   23210:	d9400115 	stw	r5,4(sp)
   23214:	d9800215 	stw	r6,8(sp)
   23218:	d9c00315 	stw	r7,12(sp)
   2321c:	008000f4 	movhi	r2,3
   23220:	10815204 	addi	r2,r2,1352
   23224:	10800017 	ldw	r2,0(r2)
   23228:	200b883a 	mov	r5,r4
   2322c:	d9800104 	addi	r6,sp,4
   23230:	11000217 	ldw	r4,8(r2)
   23234:	00255c40 	call	255c4 <__vfprintf_internal>
   23238:	dfc00017 	ldw	ra,0(sp)
   2323c:	dec00404 	addi	sp,sp,16
   23240:	f800283a 	ret

00023244 <_puts_r>:
   23244:	defff604 	addi	sp,sp,-40
   23248:	dc400815 	stw	r17,32(sp)
   2324c:	2023883a 	mov	r17,r4
   23250:	2809883a 	mov	r4,r5
   23254:	dc000715 	stw	r16,28(sp)
   23258:	dfc00915 	stw	ra,36(sp)
   2325c:	2821883a 	mov	r16,r5
   23260:	00236880 	call	23688 <strlen>
   23264:	10c00044 	addi	r3,r2,1
   23268:	d8800115 	stw	r2,4(sp)
   2326c:	89400217 	ldw	r5,8(r17)
   23270:	008000f4 	movhi	r2,3
   23274:	10b9f604 	addi	r2,r2,-6184
   23278:	d8800215 	stw	r2,8(sp)
   2327c:	00800044 	movi	r2,1
   23280:	d8800315 	stw	r2,12(sp)
   23284:	8809883a 	mov	r4,r17
   23288:	00800084 	movi	r2,2
   2328c:	d9800404 	addi	r6,sp,16
   23290:	dc000015 	stw	r16,0(sp)
   23294:	d8c00615 	stw	r3,24(sp)
   23298:	dec00415 	stw	sp,16(sp)
   2329c:	d8800515 	stw	r2,20(sp)
   232a0:	002711c0 	call	2711c <__sfvwrite_r>
   232a4:	1000061e 	bne	r2,zero,232c0 <_puts_r+0x7c>
   232a8:	00800284 	movi	r2,10
   232ac:	dfc00917 	ldw	ra,36(sp)
   232b0:	dc400817 	ldw	r17,32(sp)
   232b4:	dc000717 	ldw	r16,28(sp)
   232b8:	dec00a04 	addi	sp,sp,40
   232bc:	f800283a 	ret
   232c0:	00bfffc4 	movi	r2,-1
   232c4:	003ff906 	br	232ac <_puts_r+0x68>

000232c8 <puts>:
   232c8:	008000f4 	movhi	r2,3
   232cc:	10815204 	addi	r2,r2,1352
   232d0:	200b883a 	mov	r5,r4
   232d4:	11000017 	ldw	r4,0(r2)
   232d8:	00232441 	jmpi	23244 <_puts_r>

000232dc <lflush>:
   232dc:	20c0030b 	ldhu	r3,12(r4)
   232e0:	00800244 	movi	r2,9
   232e4:	18c0024c 	andi	r3,r3,9
   232e8:	18800226 	beq	r3,r2,232f4 <lflush+0x18>
   232ec:	0005883a 	mov	r2,zero
   232f0:	f800283a 	ret
   232f4:	00213741 	jmpi	21374 <fflush>

000232f8 <__srefill_r>:
   232f8:	defffd04 	addi	sp,sp,-12
   232fc:	dc400115 	stw	r17,4(sp)
   23300:	dc000015 	stw	r16,0(sp)
   23304:	dfc00215 	stw	ra,8(sp)
   23308:	2023883a 	mov	r17,r4
   2330c:	2821883a 	mov	r16,r5
   23310:	20000226 	beq	r4,zero,2331c <__srefill_r+0x24>
   23314:	20800e17 	ldw	r2,56(r4)
   23318:	10004426 	beq	r2,zero,2342c <__srefill_r+0x134>
   2331c:	8080030b 	ldhu	r2,12(r16)
   23320:	80000115 	stw	zero,4(r16)
   23324:	10c0080c 	andi	r3,r2,32
   23328:	18ffffcc 	andi	r3,r3,65535
   2332c:	18e0001c 	xori	r3,r3,32768
   23330:	18e00004 	addi	r3,r3,-32768
   23334:	1800371e 	bne	r3,zero,23414 <__srefill_r+0x11c>
   23338:	10c0010c 	andi	r3,r2,4
   2333c:	18ffffcc 	andi	r3,r3,65535
   23340:	18e0001c 	xori	r3,r3,32768
   23344:	18e00004 	addi	r3,r3,-32768
   23348:	18002226 	beq	r3,zero,233d4 <__srefill_r+0xdc>
   2334c:	81400c17 	ldw	r5,48(r16)
   23350:	28000826 	beq	r5,zero,23374 <__srefill_r+0x7c>
   23354:	80801004 	addi	r2,r16,64
   23358:	28800226 	beq	r5,r2,23364 <__srefill_r+0x6c>
   2335c:	8809883a 	mov	r4,r17
   23360:	0021be00 	call	21be0 <_free_r>
   23364:	80800f17 	ldw	r2,60(r16)
   23368:	80000c15 	stw	zero,48(r16)
   2336c:	80800115 	stw	r2,4(r16)
   23370:	1000401e 	bne	r2,zero,23474 <__srefill_r+0x17c>
   23374:	80800417 	ldw	r2,16(r16)
   23378:	10005026 	beq	r2,zero,234bc <__srefill_r+0x1c4>
   2337c:	8080030b 	ldhu	r2,12(r16)
   23380:	108000cc 	andi	r2,r2,3
   23384:	10002b1e 	bne	r2,zero,23434 <__srefill_r+0x13c>
   23388:	81800417 	ldw	r6,16(r16)
   2338c:	80800817 	ldw	r2,32(r16)
   23390:	81400717 	ldw	r5,28(r16)
   23394:	81c00517 	ldw	r7,20(r16)
   23398:	8809883a 	mov	r4,r17
   2339c:	81800015 	stw	r6,0(r16)
   233a0:	103ee83a 	callr	r2
   233a4:	8100030b 	ldhu	r4,12(r16)
   233a8:	00f7ffc4 	movi	r3,-8193
   233ac:	80800115 	stw	r2,4(r16)
   233b0:	20c6703a 	and	r3,r4,r3
   233b4:	80c0030d 	sth	r3,12(r16)
   233b8:	0080130e 	bge	zero,r2,23408 <__srefill_r+0x110>
   233bc:	0005883a 	mov	r2,zero
   233c0:	dfc00217 	ldw	ra,8(sp)
   233c4:	dc400117 	ldw	r17,4(sp)
   233c8:	dc000017 	ldw	r16,0(sp)
   233cc:	dec00304 	addi	sp,sp,12
   233d0:	f800283a 	ret
   233d4:	10c0040c 	andi	r3,r2,16
   233d8:	18ffffcc 	andi	r3,r3,65535
   233dc:	18e0001c 	xori	r3,r3,32768
   233e0:	18e00004 	addi	r3,r3,-32768
   233e4:	18003926 	beq	r3,zero,234cc <__srefill_r+0x1d4>
   233e8:	10c0020c 	andi	r3,r2,8
   233ec:	18ffffcc 	andi	r3,r3,65535
   233f0:	18e0001c 	xori	r3,r3,32768
   233f4:	18e00004 	addi	r3,r3,-32768
   233f8:	1800261e 	bne	r3,zero,23494 <__srefill_r+0x19c>
   233fc:	10800114 	ori	r2,r2,4
   23400:	8080030d 	sth	r2,12(r16)
   23404:	003fdb06 	br	23374 <__srefill_r+0x7c>
   23408:	1000111e 	bne	r2,zero,23450 <__srefill_r+0x158>
   2340c:	18c00814 	ori	r3,r3,32
   23410:	80c0030d 	sth	r3,12(r16)
   23414:	00bfffc4 	movi	r2,-1
   23418:	dfc00217 	ldw	ra,8(sp)
   2341c:	dc400117 	ldw	r17,4(sp)
   23420:	dc000017 	ldw	r16,0(sp)
   23424:	dec00304 	addi	sp,sp,12
   23428:	f800283a 	ret
   2342c:	00214480 	call	21448 <__sinit>
   23430:	003fba06 	br	2331c <__srefill_r+0x24>
   23434:	008000f4 	movhi	r2,3
   23438:	10815104 	addi	r2,r2,1348
   2343c:	11000017 	ldw	r4,0(r2)
   23440:	014000b4 	movhi	r5,2
   23444:	294cb704 	addi	r5,r5,13020
   23448:	00223b00 	call	223b0 <_fwalk>
   2344c:	003fce06 	br	23388 <__srefill_r+0x90>
   23450:	18c01014 	ori	r3,r3,64
   23454:	00bfffc4 	movi	r2,-1
   23458:	80000115 	stw	zero,4(r16)
   2345c:	80c0030d 	sth	r3,12(r16)
   23460:	dfc00217 	ldw	ra,8(sp)
   23464:	dc400117 	ldw	r17,4(sp)
   23468:	dc000017 	ldw	r16,0(sp)
   2346c:	dec00304 	addi	sp,sp,12
   23470:	f800283a 	ret
   23474:	80c00e17 	ldw	r3,56(r16)
   23478:	0005883a 	mov	r2,zero
   2347c:	80c00015 	stw	r3,0(r16)
   23480:	dfc00217 	ldw	ra,8(sp)
   23484:	dc400117 	ldw	r17,4(sp)
   23488:	dc000017 	ldw	r16,0(sp)
   2348c:	dec00304 	addi	sp,sp,12
   23490:	f800283a 	ret
   23494:	8809883a 	mov	r4,r17
   23498:	800b883a 	mov	r5,r16
   2349c:	002118c0 	call	2118c <_fflush_r>
   234a0:	103fdc1e 	bne	r2,zero,23414 <__srefill_r+0x11c>
   234a4:	8080030b 	ldhu	r2,12(r16)
   234a8:	00fffdc4 	movi	r3,-9
   234ac:	80000215 	stw	zero,8(r16)
   234b0:	1884703a 	and	r2,r3,r2
   234b4:	80000615 	stw	zero,24(r16)
   234b8:	003fd006 	br	233fc <__srefill_r+0x104>
   234bc:	8809883a 	mov	r4,r17
   234c0:	800b883a 	mov	r5,r16
   234c4:	00226000 	call	22600 <__smakebuf_r>
   234c8:	003fac06 	br	2337c <__srefill_r+0x84>
   234cc:	00c00244 	movi	r3,9
   234d0:	10801014 	ori	r2,r2,64
   234d4:	88c00015 	stw	r3,0(r17)
   234d8:	8080030d 	sth	r2,12(r16)
   234dc:	00bfffc4 	movi	r2,-1
   234e0:	003fb706 	br	233c0 <__srefill_r+0xc8>

000234e4 <_sbrk_r>:
   234e4:	defffd04 	addi	sp,sp,-12
   234e8:	dc400115 	stw	r17,4(sp)
   234ec:	dc000015 	stw	r16,0(sp)
   234f0:	2023883a 	mov	r17,r4
   234f4:	040000f4 	movhi	r16,3
   234f8:	84082404 	addi	r16,r16,8336
   234fc:	2809883a 	mov	r4,r5
   23500:	dfc00215 	stw	ra,8(sp)
   23504:	80000015 	stw	zero,0(r16)
   23508:	002be400 	call	2be40 <sbrk>
   2350c:	00ffffc4 	movi	r3,-1
   23510:	10c00526 	beq	r2,r3,23528 <_sbrk_r+0x44>
   23514:	dfc00217 	ldw	ra,8(sp)
   23518:	dc400117 	ldw	r17,4(sp)
   2351c:	dc000017 	ldw	r16,0(sp)
   23520:	dec00304 	addi	sp,sp,12
   23524:	f800283a 	ret
   23528:	80c00017 	ldw	r3,0(r16)
   2352c:	183ff926 	beq	r3,zero,23514 <_sbrk_r+0x30>
   23530:	88c00015 	stw	r3,0(r17)
   23534:	dfc00217 	ldw	ra,8(sp)
   23538:	dc400117 	ldw	r17,4(sp)
   2353c:	dc000017 	ldw	r16,0(sp)
   23540:	dec00304 	addi	sp,sp,12
   23544:	f800283a 	ret

00023548 <__sread>:
   23548:	defffe04 	addi	sp,sp,-8
   2354c:	dc000015 	stw	r16,0(sp)
   23550:	2821883a 	mov	r16,r5
   23554:	2940038f 	ldh	r5,14(r5)
   23558:	dfc00115 	stw	ra,4(sp)
   2355c:	0028a800 	call	28a80 <_read_r>
   23560:	10000716 	blt	r2,zero,23580 <__sread+0x38>
   23564:	80c01417 	ldw	r3,80(r16)
   23568:	1887883a 	add	r3,r3,r2
   2356c:	80c01415 	stw	r3,80(r16)
   23570:	dfc00117 	ldw	ra,4(sp)
   23574:	dc000017 	ldw	r16,0(sp)
   23578:	dec00204 	addi	sp,sp,8
   2357c:	f800283a 	ret
   23580:	80c0030b 	ldhu	r3,12(r16)
   23584:	18fbffcc 	andi	r3,r3,61439
   23588:	80c0030d 	sth	r3,12(r16)
   2358c:	dfc00117 	ldw	ra,4(sp)
   23590:	dc000017 	ldw	r16,0(sp)
   23594:	dec00204 	addi	sp,sp,8
   23598:	f800283a 	ret

0002359c <__swrite>:
   2359c:	2880030b 	ldhu	r2,12(r5)
   235a0:	defffb04 	addi	sp,sp,-20
   235a4:	dcc00315 	stw	r19,12(sp)
   235a8:	10c0400c 	andi	r3,r2,256
   235ac:	18ffffcc 	andi	r3,r3,65535
   235b0:	18e0001c 	xori	r3,r3,32768
   235b4:	dc800215 	stw	r18,8(sp)
   235b8:	dc400115 	stw	r17,4(sp)
   235bc:	dc000015 	stw	r16,0(sp)
   235c0:	dfc00415 	stw	ra,16(sp)
   235c4:	18e00004 	addi	r3,r3,-32768
   235c8:	2821883a 	mov	r16,r5
   235cc:	2027883a 	mov	r19,r4
   235d0:	3025883a 	mov	r18,r6
   235d4:	3823883a 	mov	r17,r7
   235d8:	18000526 	beq	r3,zero,235f0 <__swrite+0x54>
   235dc:	2940038f 	ldh	r5,14(r5)
   235e0:	000d883a 	mov	r6,zero
   235e4:	01c00084 	movi	r7,2
   235e8:	00277400 	call	27740 <_lseek_r>
   235ec:	8080030b 	ldhu	r2,12(r16)
   235f0:	8140038f 	ldh	r5,14(r16)
   235f4:	10bbffcc 	andi	r2,r2,61439
   235f8:	9809883a 	mov	r4,r19
   235fc:	900d883a 	mov	r6,r18
   23600:	880f883a 	mov	r7,r17
   23604:	8080030d 	sth	r2,12(r16)
   23608:	dfc00417 	ldw	ra,16(sp)
   2360c:	dcc00317 	ldw	r19,12(sp)
   23610:	dc800217 	ldw	r18,8(sp)
   23614:	dc400117 	ldw	r17,4(sp)
   23618:	dc000017 	ldw	r16,0(sp)
   2361c:	dec00504 	addi	sp,sp,20
   23620:	00255e81 	jmpi	255e8 <_write_r>

00023624 <__sseek>:
   23624:	defffe04 	addi	sp,sp,-8
   23628:	dc000015 	stw	r16,0(sp)
   2362c:	2821883a 	mov	r16,r5
   23630:	2940038f 	ldh	r5,14(r5)
   23634:	dfc00115 	stw	ra,4(sp)
   23638:	00277400 	call	27740 <_lseek_r>
   2363c:	00ffffc4 	movi	r3,-1
   23640:	10c00826 	beq	r2,r3,23664 <__sseek+0x40>
   23644:	80c0030b 	ldhu	r3,12(r16)
   23648:	80801415 	stw	r2,80(r16)
   2364c:	18c40014 	ori	r3,r3,4096
   23650:	80c0030d 	sth	r3,12(r16)
   23654:	dfc00117 	ldw	ra,4(sp)
   23658:	dc000017 	ldw	r16,0(sp)
   2365c:	dec00204 	addi	sp,sp,8
   23660:	f800283a 	ret
   23664:	80c0030b 	ldhu	r3,12(r16)
   23668:	18fbffcc 	andi	r3,r3,61439
   2366c:	80c0030d 	sth	r3,12(r16)
   23670:	dfc00117 	ldw	ra,4(sp)
   23674:	dc000017 	ldw	r16,0(sp)
   23678:	dec00204 	addi	sp,sp,8
   2367c:	f800283a 	ret

00023680 <__sclose>:
   23680:	2940038f 	ldh	r5,14(r5)
   23684:	00257c81 	jmpi	257c8 <_close_r>

00023688 <strlen>:
   23688:	208000cc 	andi	r2,r4,3
   2368c:	10001f1e 	bne	r2,zero,2370c <strlen+0x84>
   23690:	20800017 	ldw	r2,0(r4)
   23694:	01ffbff4 	movhi	r7,65279
   23698:	39ffbfc4 	addi	r7,r7,-257
   2369c:	01a02074 	movhi	r6,32897
   236a0:	31a02004 	addi	r6,r6,-32640
   236a4:	11c7883a 	add	r3,r2,r7
   236a8:	0084303a 	nor	r2,zero,r2
   236ac:	1886703a 	and	r3,r3,r2
   236b0:	1986703a 	and	r3,r3,r6
   236b4:	2005883a 	mov	r2,r4
   236b8:	1800101e 	bne	r3,zero,236fc <strlen+0x74>
   236bc:	10800104 	addi	r2,r2,4
   236c0:	10c00017 	ldw	r3,0(r2)
   236c4:	19cb883a 	add	r5,r3,r7
   236c8:	00c6303a 	nor	r3,zero,r3
   236cc:	28c6703a 	and	r3,r5,r3
   236d0:	1986703a 	and	r3,r3,r6
   236d4:	1800091e 	bne	r3,zero,236fc <strlen+0x74>
   236d8:	10800104 	addi	r2,r2,4
   236dc:	10c00017 	ldw	r3,0(r2)
   236e0:	19cb883a 	add	r5,r3,r7
   236e4:	00c6303a 	nor	r3,zero,r3
   236e8:	28c6703a 	and	r3,r5,r3
   236ec:	1986703a 	and	r3,r3,r6
   236f0:	183ff226 	beq	r3,zero,236bc <strlen+0x34>
   236f4:	00000106 	br	236fc <strlen+0x74>
   236f8:	10800044 	addi	r2,r2,1
   236fc:	10c00007 	ldb	r3,0(r2)
   23700:	183ffd1e 	bne	r3,zero,236f8 <strlen+0x70>
   23704:	1105c83a 	sub	r2,r2,r4
   23708:	f800283a 	ret
   2370c:	2005883a 	mov	r2,r4
   23710:	003ffa06 	br	236fc <strlen+0x74>

00023714 <__sprint_r>:
   23714:	30800217 	ldw	r2,8(r6)
   23718:	defffe04 	addi	sp,sp,-8
   2371c:	dc000015 	stw	r16,0(sp)
   23720:	dfc00115 	stw	ra,4(sp)
   23724:	3021883a 	mov	r16,r6
   23728:	10000226 	beq	r2,zero,23734 <__sprint_r+0x20>
   2372c:	002711c0 	call	2711c <__sfvwrite_r>
   23730:	80000215 	stw	zero,8(r16)
   23734:	80000115 	stw	zero,4(r16)
   23738:	dfc00117 	ldw	ra,4(sp)
   2373c:	dc000017 	ldw	r16,0(sp)
   23740:	dec00204 	addi	sp,sp,8
   23744:	f800283a 	ret

00023748 <___vfprintf_internal_r>:
   23748:	defeb904 	addi	sp,sp,-1308
   2374c:	dc013d15 	stw	r16,1268(sp)
   23750:	d9013015 	stw	r4,1216(sp)
   23754:	dfc14615 	stw	ra,1304(sp)
   23758:	df014515 	stw	fp,1300(sp)
   2375c:	ddc14415 	stw	r23,1296(sp)
   23760:	dd814315 	stw	r22,1292(sp)
   23764:	dd414215 	stw	r21,1288(sp)
   23768:	dd014115 	stw	r20,1284(sp)
   2376c:	dcc14015 	stw	r19,1280(sp)
   23770:	dc813f15 	stw	r18,1276(sp)
   23774:	dc413e15 	stw	r17,1272(sp)
   23778:	d9412915 	stw	r5,1188(sp)
   2377c:	3021883a 	mov	r16,r6
   23780:	d9c12d15 	stw	r7,1204(sp)
   23784:	002770c0 	call	2770c <_localeconv_r>
   23788:	10800017 	ldw	r2,0(r2)
   2378c:	d9013017 	ldw	r4,1216(sp)
   23790:	d8013315 	stw	zero,1228(sp)
   23794:	d8813715 	stw	r2,1244(sp)
   23798:	d8013415 	stw	zero,1232(sp)
   2379c:	20000226 	beq	r4,zero,237a8 <___vfprintf_internal_r+0x60>
   237a0:	20800e17 	ldw	r2,56(r4)
   237a4:	10014b26 	beq	r2,zero,23cd4 <___vfprintf_internal_r+0x58c>
   237a8:	d8c12917 	ldw	r3,1188(sp)
   237ac:	1880030b 	ldhu	r2,12(r3)
   237b0:	10c0020c 	andi	r3,r2,8
   237b4:	18ffffcc 	andi	r3,r3,65535
   237b8:	18e0001c 	xori	r3,r3,32768
   237bc:	18e00004 	addi	r3,r3,-32768
   237c0:	1800ed26 	beq	r3,zero,23b78 <___vfprintf_internal_r+0x430>
   237c4:	d9012917 	ldw	r4,1188(sp)
   237c8:	20c00417 	ldw	r3,16(r4)
   237cc:	1800ea26 	beq	r3,zero,23b78 <___vfprintf_internal_r+0x430>
   237d0:	1100068c 	andi	r4,r2,26
   237d4:	00c00284 	movi	r3,10
   237d8:	20c0f026 	beq	r4,r3,23b9c <___vfprintf_internal_r+0x454>
   237dc:	d9010dc4 	addi	r4,sp,1079
   237e0:	d8810e04 	addi	r2,sp,1080
   237e4:	dc413017 	ldw	r17,1216(sp)
   237e8:	d8c00404 	addi	r3,sp,16
   237ec:	d9012615 	stw	r4,1176(sp)
   237f0:	1109c83a 	sub	r4,r2,r4
   237f4:	d8812715 	stw	r2,1180(sp)
   237f8:	d8c11b15 	stw	r3,1132(sp)
   237fc:	d8011d15 	stw	zero,1140(sp)
   23800:	d8011c15 	stw	zero,1136(sp)
   23804:	802b883a 	mov	r21,r16
   23808:	d8013215 	stw	zero,1224(sp)
   2380c:	d8013615 	stw	zero,1240(sp)
   23810:	d8013515 	stw	zero,1236(sp)
   23814:	d8012c15 	stw	zero,1200(sp)
   23818:	1813883a 	mov	r9,r3
   2381c:	d9013915 	stw	r4,1252(sp)
   23820:	a8800007 	ldb	r2,0(r21)
   23824:	1002f326 	beq	r2,zero,243f4 <___vfprintf_internal_r+0xcac>
   23828:	00c00944 	movi	r3,37
   2382c:	a825883a 	mov	r18,r21
   23830:	10c0021e 	bne	r2,r3,2383c <___vfprintf_internal_r+0xf4>
   23834:	00001406 	br	23888 <___vfprintf_internal_r+0x140>
   23838:	10c00326 	beq	r2,r3,23848 <___vfprintf_internal_r+0x100>
   2383c:	94800044 	addi	r18,r18,1
   23840:	90800007 	ldb	r2,0(r18)
   23844:	103ffc1e 	bne	r2,zero,23838 <___vfprintf_internal_r+0xf0>
   23848:	9561c83a 	sub	r16,r18,r21
   2384c:	80000e26 	beq	r16,zero,23888 <___vfprintf_internal_r+0x140>
   23850:	da011d17 	ldw	r8,1140(sp)
   23854:	d8c11c17 	ldw	r3,1136(sp)
   23858:	4d400015 	stw	r21,0(r9)
   2385c:	4c000115 	stw	r16,4(r9)
   23860:	4411883a 	add	r8,r8,r16
   23864:	18c00044 	addi	r3,r3,1
   23868:	da011d15 	stw	r8,1140(sp)
   2386c:	d8c11c15 	stw	r3,1136(sp)
   23870:	008001c4 	movi	r2,7
   23874:	10c11016 	blt	r2,r3,23cb8 <___vfprintf_internal_r+0x570>
   23878:	4a400204 	addi	r9,r9,8
   2387c:	d8812c17 	ldw	r2,1200(sp)
   23880:	1405883a 	add	r2,r2,r16
   23884:	d8812c15 	stw	r2,1200(sp)
   23888:	90800007 	ldb	r2,0(r18)
   2388c:	1000ee26 	beq	r2,zero,23c48 <___vfprintf_internal_r+0x500>
   23890:	95400044 	addi	r21,r18,1
   23894:	94800047 	ldb	r18,1(r18)
   23898:	073fffc4 	movi	fp,-1
   2389c:	e007883a 	mov	r3,fp
   238a0:	d8012585 	stb	zero,1174(sp)
   238a4:	d8012e15 	stw	zero,1208(sp)
   238a8:	0021883a 	mov	r16,zero
   238ac:	05001604 	movi	r20,88
   238b0:	04c00244 	movi	r19,9
   238b4:	4839883a 	mov	fp,r9
   238b8:	ad400044 	addi	r21,r21,1
   238bc:	90bff804 	addi	r2,r18,-32
   238c0:	a080462e 	bgeu	r20,r2,239dc <___vfprintf_internal_r+0x294>
   238c4:	e013883a 	mov	r9,fp
   238c8:	9000df26 	beq	r18,zero,23c48 <___vfprintf_internal_r+0x500>
   238cc:	00c00044 	movi	r3,1
   238d0:	d8c12815 	stw	r3,1184(sp)
   238d4:	dc810405 	stb	r18,1040(sp)
   238d8:	d8012585 	stb	zero,1174(sp)
   238dc:	d8c12b15 	stw	r3,1196(sp)
   238e0:	dcc10404 	addi	r19,sp,1040
   238e4:	d8013115 	stw	zero,1220(sp)
   238e8:	80c0008c 	andi	r3,r16,2
   238ec:	d8c12a15 	stw	r3,1192(sp)
   238f0:	18000326 	beq	r3,zero,23900 <___vfprintf_internal_r+0x1b8>
   238f4:	d8c12817 	ldw	r3,1184(sp)
   238f8:	18c00084 	addi	r3,r3,2
   238fc:	d8c12815 	stw	r3,1184(sp)
   23900:	80c0210c 	andi	r3,r16,132
   23904:	d8c12f15 	stw	r3,1212(sp)
   23908:	1802251e 	bne	r3,zero,241a0 <___vfprintf_internal_r+0xa58>
   2390c:	d9012e17 	ldw	r4,1208(sp)
   23910:	d8c12817 	ldw	r3,1184(sp)
   23914:	20edc83a 	sub	r22,r4,r3
   23918:	0582210e 	bge	zero,r22,241a0 <___vfprintf_internal_r+0xa58>
   2391c:	02800404 	movi	r10,16
   23920:	da011d17 	ldw	r8,1140(sp)
   23924:	d8c11c17 	ldw	r3,1136(sp)
   23928:	05c000f4 	movhi	r23,3
   2392c:	bdfa0784 	addi	r23,r23,-6114
   23930:	5580200e 	bge	r10,r22,239b4 <___vfprintf_internal_r+0x26c>
   23934:	dc813815 	stw	r18,1248(sp)
   23938:	5039883a 	mov	fp,r10
   2393c:	b825883a 	mov	r18,r23
   23940:	050001c4 	movi	r20,7
   23944:	b02f883a 	mov	r23,r22
   23948:	802d883a 	mov	r22,r16
   2394c:	dc012917 	ldw	r16,1188(sp)
   23950:	00000306 	br	23960 <___vfprintf_internal_r+0x218>
   23954:	bdfffc04 	addi	r23,r23,-16
   23958:	4a400204 	addi	r9,r9,8
   2395c:	e5c0110e 	bge	fp,r23,239a4 <___vfprintf_internal_r+0x25c>
   23960:	4c800015 	stw	r18,0(r9)
   23964:	4f000115 	stw	fp,4(r9)
   23968:	42000404 	addi	r8,r8,16
   2396c:	18c00044 	addi	r3,r3,1
   23970:	da011d15 	stw	r8,1140(sp)
   23974:	d8c11c15 	stw	r3,1136(sp)
   23978:	a0fff60e 	bge	r20,r3,23954 <___vfprintf_internal_r+0x20c>
   2397c:	8809883a 	mov	r4,r17
   23980:	800b883a 	mov	r5,r16
   23984:	d9811b04 	addi	r6,sp,1132
   23988:	00237140 	call	23714 <__sprint_r>
   2398c:	1000b41e 	bne	r2,zero,23c60 <___vfprintf_internal_r+0x518>
   23990:	bdfffc04 	addi	r23,r23,-16
   23994:	da011d17 	ldw	r8,1140(sp)
   23998:	d8c11c17 	ldw	r3,1136(sp)
   2399c:	da400404 	addi	r9,sp,16
   239a0:	e5ffef16 	blt	fp,r23,23960 <___vfprintf_internal_r+0x218>
   239a4:	b021883a 	mov	r16,r22
   239a8:	b82d883a 	mov	r22,r23
   239ac:	902f883a 	mov	r23,r18
   239b0:	dc813817 	ldw	r18,1248(sp)
   239b4:	4dc00015 	stw	r23,0(r9)
   239b8:	4d800115 	stw	r22,4(r9)
   239bc:	4591883a 	add	r8,r8,r22
   239c0:	18c00044 	addi	r3,r3,1
   239c4:	da011d15 	stw	r8,1140(sp)
   239c8:	d8c11c15 	stw	r3,1136(sp)
   239cc:	008001c4 	movi	r2,7
   239d0:	10c3fe16 	blt	r2,r3,249cc <___vfprintf_internal_r+0x1284>
   239d4:	4a400204 	addi	r9,r9,8
   239d8:	0001f306 	br	241a8 <___vfprintf_internal_r+0xa60>
   239dc:	1085883a 	add	r2,r2,r2
   239e0:	1085883a 	add	r2,r2,r2
   239e4:	010000b4 	movhi	r4,2
   239e8:	210e7e04 	addi	r4,r4,14840
   239ec:	1105883a 	add	r2,r2,r4
   239f0:	10800017 	ldw	r2,0(r2)
   239f4:	1000683a 	jmp	r2
   239f8:	000240d4 	movui	zero,2307
   239fc:	000238c4 	movi	zero,2275
   23a00:	000238c4 	movi	zero,2275
   23a04:	000240ec 	andhi	zero,zero,2307
   23a08:	000238c4 	movi	zero,2275
   23a0c:	000238c4 	movi	zero,2275
   23a10:	000238c4 	movi	zero,2275
   23a14:	000238c4 	movi	zero,2275
   23a18:	000238c4 	movi	zero,2275
   23a1c:	000238c4 	movi	zero,2275
   23a20:	00023fa4 	muli	zero,zero,2302
   23a24:	00024138 	rdprs	zero,zero,2308
   23a28:	000238c4 	movi	zero,2275
   23a2c:	00023b6c 	andhi	zero,zero,2285
   23a30:	00023f0c 	andi	zero,zero,2300
   23a34:	000238c4 	movi	zero,2275
   23a38:	000240f8 	rdprs	zero,zero,2307
   23a3c:	00024104 	movi	zero,2308
   23a40:	00024104 	movi	zero,2308
   23a44:	00024104 	movi	zero,2308
   23a48:	00024104 	movi	zero,2308
   23a4c:	00024104 	movi	zero,2308
   23a50:	00024104 	movi	zero,2308
   23a54:	00024104 	movi	zero,2308
   23a58:	00024104 	movi	zero,2308
   23a5c:	00024104 	movi	zero,2308
   23a60:	000238c4 	movi	zero,2275
   23a64:	000238c4 	movi	zero,2275
   23a68:	000238c4 	movi	zero,2275
   23a6c:	000238c4 	movi	zero,2275
   23a70:	000238c4 	movi	zero,2275
   23a74:	000238c4 	movi	zero,2275
   23a78:	000238c4 	movi	zero,2275
   23a7c:	000238c4 	movi	zero,2275
   23a80:	000238c4 	movi	zero,2275
   23a84:	000238c4 	movi	zero,2275
   23a88:	00023cdc 	xori	zero,zero,2291
   23a8c:	00023d9c 	xori	zero,zero,2294
   23a90:	000238c4 	movi	zero,2275
   23a94:	00023d9c 	xori	zero,zero,2294
   23a98:	000238c4 	movi	zero,2275
   23a9c:	000238c4 	movi	zero,2275
   23aa0:	000238c4 	movi	zero,2275
   23aa4:	000238c4 	movi	zero,2275
   23aa8:	00023e30 	cmpltui	zero,zero,2296
   23aac:	000238c4 	movi	zero,2275
   23ab0:	000238c4 	movi	zero,2275
   23ab4:	00023e3c 	xorhi	zero,zero,2296
   23ab8:	000238c4 	movi	zero,2275
   23abc:	000238c4 	movi	zero,2275
   23ac0:	000238c4 	movi	zero,2275
   23ac4:	000238c4 	movi	zero,2275
   23ac8:	000238c4 	movi	zero,2275
   23acc:	00023e74 	movhi	zero,2297
   23ad0:	000238c4 	movi	zero,2275
   23ad4:	000238c4 	movi	zero,2275
   23ad8:	00023eb0 	cmpltui	zero,zero,2298
   23adc:	000238c4 	movi	zero,2275
   23ae0:	000238c4 	movi	zero,2275
   23ae4:	000238c4 	movi	zero,2275
   23ae8:	000238c4 	movi	zero,2275
   23aec:	000238c4 	movi	zero,2275
   23af0:	000238c4 	movi	zero,2275
   23af4:	000238c4 	movi	zero,2275
   23af8:	000238c4 	movi	zero,2275
   23afc:	000238c4 	movi	zero,2275
   23b00:	000238c4 	movi	zero,2275
   23b04:	00024148 	cmpgei	zero,zero,2309
   23b08:	0002417c 	xorhi	zero,zero,2309
   23b0c:	00023d9c 	xori	zero,zero,2294
   23b10:	00023d9c 	xori	zero,zero,2294
   23b14:	00023d9c 	xori	zero,zero,2294
   23b18:	000240c8 	cmpgei	zero,zero,2307
   23b1c:	0002417c 	xorhi	zero,zero,2309
   23b20:	000238c4 	movi	zero,2275
   23b24:	000238c4 	movi	zero,2275
   23b28:	00023f54 	movui	zero,2301
   23b2c:	000238c4 	movi	zero,2275
   23b30:	00023f6c 	andhi	zero,zero,2301
   23b34:	00024188 	cmpgei	zero,zero,2310
   23b38:	00023fcc 	andi	zero,zero,2303
   23b3c:	0002401c 	xori	zero,zero,2304
   23b40:	000238c4 	movi	zero,2275
   23b44:	00024028 	cmpgeui	zero,zero,2304
   23b48:	000238c4 	movi	zero,2275
   23b4c:	00024194 	movui	zero,2310
   23b50:	000238c4 	movi	zero,2275
   23b54:	000238c4 	movi	zero,2275
   23b58:	0002408c 	andi	zero,zero,2306
   23b5c:	d9012e17 	ldw	r4,1208(sp)
   23b60:	d8812d15 	stw	r2,1204(sp)
   23b64:	0109c83a 	sub	r4,zero,r4
   23b68:	d9012e15 	stw	r4,1208(sp)
   23b6c:	84000114 	ori	r16,r16,4
   23b70:	ac800007 	ldb	r18,0(r21)
   23b74:	003f5006 	br	238b8 <___vfprintf_internal_r+0x170>
   23b78:	d9013017 	ldw	r4,1216(sp)
   23b7c:	d9412917 	ldw	r5,1188(sp)
   23b80:	00256540 	call	25654 <__swsetup_r>
   23b84:	10003d1e 	bne	r2,zero,23c7c <___vfprintf_internal_r+0x534>
   23b88:	d8c12917 	ldw	r3,1188(sp)
   23b8c:	1880030b 	ldhu	r2,12(r3)
   23b90:	00c00284 	movi	r3,10
   23b94:	1100068c 	andi	r4,r2,26
   23b98:	20ff101e 	bne	r4,r3,237dc <___vfprintf_internal_r+0x94>
   23b9c:	d9012917 	ldw	r4,1188(sp)
   23ba0:	20c0038b 	ldhu	r3,14(r4)
   23ba4:	193fffcc 	andi	r4,r3,65535
   23ba8:	2120001c 	xori	r4,r4,32768
   23bac:	21200004 	addi	r4,r4,-32768
   23bb0:	203f0a16 	blt	r4,zero,237dc <___vfprintf_internal_r+0x94>
   23bb4:	d9012917 	ldw	r4,1188(sp)
   23bb8:	d9c12d17 	ldw	r7,1204(sp)
   23bbc:	10bfff4c 	andi	r2,r2,65533
   23bc0:	22800717 	ldw	r10,28(r4)
   23bc4:	22400917 	ldw	r9,36(r4)
   23bc8:	d9013017 	ldw	r4,1216(sp)
   23bcc:	02010004 	movi	r8,1024
   23bd0:	d881070d 	sth	r2,1052(sp)
   23bd4:	d9410404 	addi	r5,sp,1040
   23bd8:	d8800404 	addi	r2,sp,16
   23bdc:	800d883a 	mov	r6,r16
   23be0:	d8c1078d 	sth	r3,1054(sp)
   23be4:	da810b15 	stw	r10,1068(sp)
   23be8:	da410d15 	stw	r9,1076(sp)
   23bec:	d8810415 	stw	r2,1040(sp)
   23bf0:	d8810815 	stw	r2,1056(sp)
   23bf4:	da010615 	stw	r8,1048(sp)
   23bf8:	da010915 	stw	r8,1060(sp)
   23bfc:	d8010a15 	stw	zero,1064(sp)
   23c00:	00237480 	call	23748 <___vfprintf_internal_r>
   23c04:	d8812c15 	stw	r2,1200(sp)
   23c08:	10000416 	blt	r2,zero,23c1c <___vfprintf_internal_r+0x4d4>
   23c0c:	d9013017 	ldw	r4,1216(sp)
   23c10:	d9410404 	addi	r5,sp,1040
   23c14:	002118c0 	call	2118c <_fflush_r>
   23c18:	1006501e 	bne	r2,zero,2555c <___vfprintf_internal_r+0x1e14>
   23c1c:	d881070b 	ldhu	r2,1052(sp)
   23c20:	1080100c 	andi	r2,r2,64
   23c24:	10bfffcc 	andi	r2,r2,65535
   23c28:	10a0001c 	xori	r2,r2,32768
   23c2c:	10a00004 	addi	r2,r2,-32768
   23c30:	10001426 	beq	r2,zero,23c84 <___vfprintf_internal_r+0x53c>
   23c34:	d8c12917 	ldw	r3,1188(sp)
   23c38:	1880030b 	ldhu	r2,12(r3)
   23c3c:	10801014 	ori	r2,r2,64
   23c40:	1880030d 	sth	r2,12(r3)
   23c44:	00000f06 	br	23c84 <___vfprintf_internal_r+0x53c>
   23c48:	d8811d17 	ldw	r2,1140(sp)
   23c4c:	10000426 	beq	r2,zero,23c60 <___vfprintf_internal_r+0x518>
   23c50:	d9013017 	ldw	r4,1216(sp)
   23c54:	d9412917 	ldw	r5,1188(sp)
   23c58:	d9811b04 	addi	r6,sp,1132
   23c5c:	00237140 	call	23714 <__sprint_r>
   23c60:	d8c12917 	ldw	r3,1188(sp)
   23c64:	1880030b 	ldhu	r2,12(r3)
   23c68:	1080100c 	andi	r2,r2,64
   23c6c:	10bfffcc 	andi	r2,r2,65535
   23c70:	10a0001c 	xori	r2,r2,32768
   23c74:	10a00004 	addi	r2,r2,-32768
   23c78:	10000226 	beq	r2,zero,23c84 <___vfprintf_internal_r+0x53c>
   23c7c:	00bfffc4 	movi	r2,-1
   23c80:	d8812c15 	stw	r2,1200(sp)
   23c84:	d8812c17 	ldw	r2,1200(sp)
   23c88:	dfc14617 	ldw	ra,1304(sp)
   23c8c:	df014517 	ldw	fp,1300(sp)
   23c90:	ddc14417 	ldw	r23,1296(sp)
   23c94:	dd814317 	ldw	r22,1292(sp)
   23c98:	dd414217 	ldw	r21,1288(sp)
   23c9c:	dd014117 	ldw	r20,1284(sp)
   23ca0:	dcc14017 	ldw	r19,1280(sp)
   23ca4:	dc813f17 	ldw	r18,1276(sp)
   23ca8:	dc413e17 	ldw	r17,1272(sp)
   23cac:	dc013d17 	ldw	r16,1268(sp)
   23cb0:	dec14704 	addi	sp,sp,1308
   23cb4:	f800283a 	ret
   23cb8:	d9412917 	ldw	r5,1188(sp)
   23cbc:	8809883a 	mov	r4,r17
   23cc0:	d9811b04 	addi	r6,sp,1132
   23cc4:	00237140 	call	23714 <__sprint_r>
   23cc8:	103fe51e 	bne	r2,zero,23c60 <___vfprintf_internal_r+0x518>
   23ccc:	da400404 	addi	r9,sp,16
   23cd0:	003eea06 	br	2387c <___vfprintf_internal_r+0x134>
   23cd4:	00214480 	call	21448 <__sinit>
   23cd8:	003eb306 	br	237a8 <___vfprintf_internal_r+0x60>
   23cdc:	e013883a 	mov	r9,fp
   23ce0:	84000414 	ori	r16,r16,16
   23ce4:	1839883a 	mov	fp,r3
   23ce8:	8080080c 	andi	r2,r16,32
   23cec:	10034426 	beq	r2,zero,24a00 <___vfprintf_internal_r+0x12b8>
   23cf0:	d8c12d17 	ldw	r3,1204(sp)
   23cf4:	18800117 	ldw	r2,4(r3)
   23cf8:	1dc00017 	ldw	r23,0(r3)
   23cfc:	18c00204 	addi	r3,r3,8
   23d00:	d8c12d15 	stw	r3,1204(sp)
   23d04:	102d883a 	mov	r22,r2
   23d08:	1003020e 	bge	r2,zero,24914 <___vfprintf_internal_r+0x11cc>
   23d0c:	05efc83a 	sub	r23,zero,r23
   23d10:	b804c03a 	cmpne	r2,r23,zero
   23d14:	05adc83a 	sub	r22,zero,r22
   23d18:	b0adc83a 	sub	r22,r22,r2
   23d1c:	00800b44 	movi	r2,45
   23d20:	d8812585 	stb	r2,1174(sp)
   23d24:	00c00044 	movi	r3,1
   23d28:	bd84b03a 	or	r2,r23,r22
   23d2c:	e0000216 	blt	fp,zero,23d38 <___vfprintf_internal_r+0x5f0>
   23d30:	013fdfc4 	movi	r4,-129
   23d34:	8120703a 	and	r16,r16,r4
   23d38:	1001cc1e 	bne	r2,zero,2446c <___vfprintf_internal_r+0xd24>
   23d3c:	e001cb1e 	bne	fp,zero,2446c <___vfprintf_internal_r+0xd24>
   23d40:	18c03fcc 	andi	r3,r3,255
   23d44:	1802ca1e 	bne	r3,zero,24870 <___vfprintf_internal_r+0x1128>
   23d48:	8080004c 	andi	r2,r16,1
   23d4c:	1002c826 	beq	r2,zero,24870 <___vfprintf_internal_r+0x1128>
   23d50:	d8c13917 	ldw	r3,1252(sp)
   23d54:	00800c04 	movi	r2,48
   23d58:	d8810dc5 	stb	r2,1079(sp)
   23d5c:	d8c12b15 	stw	r3,1196(sp)
   23d60:	dcc10dc4 	addi	r19,sp,1079
   23d64:	d8812b17 	ldw	r2,1196(sp)
   23d68:	d8812815 	stw	r2,1184(sp)
   23d6c:	1700010e 	bge	r2,fp,23d74 <___vfprintf_internal_r+0x62c>
   23d70:	df012815 	stw	fp,1184(sp)
   23d74:	d8812583 	ldbu	r2,1174(sp)
   23d78:	df013115 	stw	fp,1220(sp)
   23d7c:	10803fcc 	andi	r2,r2,255
   23d80:	1080201c 	xori	r2,r2,128
   23d84:	10bfe004 	addi	r2,r2,-128
   23d88:	103ed726 	beq	r2,zero,238e8 <___vfprintf_internal_r+0x1a0>
   23d8c:	d8c12817 	ldw	r3,1184(sp)
   23d90:	18c00044 	addi	r3,r3,1
   23d94:	d8c12815 	stw	r3,1184(sp)
   23d98:	003ed306 	br	238e8 <___vfprintf_internal_r+0x1a0>
   23d9c:	8080020c 	andi	r2,r16,8
   23da0:	e013883a 	mov	r9,fp
   23da4:	1839883a 	mov	fp,r3
   23da8:	1003a626 	beq	r2,zero,24c44 <___vfprintf_internal_r+0x14fc>
   23dac:	d9012d17 	ldw	r4,1204(sp)
   23db0:	25800017 	ldw	r22,0(r4)
   23db4:	25000117 	ldw	r20,4(r4)
   23db8:	21000204 	addi	r4,r4,8
   23dbc:	d9012d15 	stw	r4,1204(sp)
   23dc0:	dd813315 	stw	r22,1228(sp)
   23dc4:	dd013415 	stw	r20,1232(sp)
   23dc8:	b009883a 	mov	r4,r22
   23dcc:	a00b883a 	mov	r5,r20
   23dd0:	da413c15 	stw	r9,1264(sp)
   23dd4:	00290e80 	call	290e8 <__isinfd>
   23dd8:	da413c17 	ldw	r9,1264(sp)
   23ddc:	b009883a 	mov	r4,r22
   23de0:	a00b883a 	mov	r5,r20
   23de4:	10041d26 	beq	r2,zero,24e5c <___vfprintf_internal_r+0x1714>
   23de8:	000d883a 	mov	r6,zero
   23dec:	000f883a 	mov	r7,zero
   23df0:	002a9540 	call	2a954 <__ltdf2>
   23df4:	da413c17 	ldw	r9,1264(sp)
   23df8:	1004da16 	blt	r2,zero,25164 <___vfprintf_internal_r+0x1a1c>
   23dfc:	d8812583 	ldbu	r2,1174(sp)
   23e00:	00c011c4 	movi	r3,71
   23e04:	1c83d116 	blt	r3,r18,24d4c <___vfprintf_internal_r+0x1604>
   23e08:	04c000f4 	movhi	r19,3
   23e0c:	9cf9f704 	addi	r19,r19,-6180
   23e10:	00c000c4 	movi	r3,3
   23e14:	d8c12815 	stw	r3,1184(sp)
   23e18:	00ffdfc4 	movi	r3,-129
   23e1c:	80e0703a 	and	r16,r16,r3
   23e20:	d8c12817 	ldw	r3,1184(sp)
   23e24:	d8013115 	stw	zero,1220(sp)
   23e28:	d8c12b15 	stw	r3,1196(sp)
   23e2c:	003fd306 	br	23d7c <___vfprintf_internal_r+0x634>
   23e30:	84000214 	ori	r16,r16,8
   23e34:	ac800007 	ldb	r18,0(r21)
   23e38:	003e9f06 	br	238b8 <___vfprintf_internal_r+0x170>
   23e3c:	e013883a 	mov	r9,fp
   23e40:	84000414 	ori	r16,r16,16
   23e44:	1839883a 	mov	fp,r3
   23e48:	8080080c 	andi	r2,r16,32
   23e4c:	10031d26 	beq	r2,zero,24ac4 <___vfprintf_internal_r+0x137c>
   23e50:	d8812d17 	ldw	r2,1204(sp)
   23e54:	0007883a 	mov	r3,zero
   23e58:	15c00017 	ldw	r23,0(r2)
   23e5c:	15800117 	ldw	r22,4(r2)
   23e60:	10800204 	addi	r2,r2,8
   23e64:	d8812d15 	stw	r2,1204(sp)
   23e68:	d8012585 	stb	zero,1174(sp)
   23e6c:	bd84b03a 	or	r2,r23,r22
   23e70:	003fae06 	br	23d2c <___vfprintf_internal_r+0x5e4>
   23e74:	e013883a 	mov	r9,fp
   23e78:	84000414 	ori	r16,r16,16
   23e7c:	1839883a 	mov	fp,r3
   23e80:	8080080c 	andi	r2,r16,32
   23e84:	1002e726 	beq	r2,zero,24a24 <___vfprintf_internal_r+0x12dc>
   23e88:	d8c12d17 	ldw	r3,1204(sp)
   23e8c:	d9012d17 	ldw	r4,1204(sp)
   23e90:	1dc00017 	ldw	r23,0(r3)
   23e94:	1d800117 	ldw	r22,4(r3)
   23e98:	21000204 	addi	r4,r4,8
   23e9c:	00c00044 	movi	r3,1
   23ea0:	d9012d15 	stw	r4,1204(sp)
   23ea4:	bd84b03a 	or	r2,r23,r22
   23ea8:	d8012585 	stb	zero,1174(sp)
   23eac:	003f9f06 	br	23d2c <___vfprintf_internal_r+0x5e4>
   23eb0:	e013883a 	mov	r9,fp
   23eb4:	1839883a 	mov	fp,r3
   23eb8:	00c000f4 	movhi	r3,3
   23ebc:	18f9fb04 	addi	r3,r3,-6164
   23ec0:	d8c13615 	stw	r3,1240(sp)
   23ec4:	8080080c 	andi	r2,r16,32
   23ec8:	10007726 	beq	r2,zero,240a8 <___vfprintf_internal_r+0x960>
   23ecc:	d9012d17 	ldw	r4,1204(sp)
   23ed0:	25c00017 	ldw	r23,0(r4)
   23ed4:	25800117 	ldw	r22,4(r4)
   23ed8:	21000204 	addi	r4,r4,8
   23edc:	d9012d15 	stw	r4,1204(sp)
   23ee0:	8080004c 	andi	r2,r16,1
   23ee4:	1002c226 	beq	r2,zero,249f0 <___vfprintf_internal_r+0x12a8>
   23ee8:	bd84b03a 	or	r2,r23,r22
   23eec:	10035d26 	beq	r2,zero,24c64 <___vfprintf_internal_r+0x151c>
   23ef0:	00c00c04 	movi	r3,48
   23ef4:	d8c12505 	stb	r3,1172(sp)
   23ef8:	dc812545 	stb	r18,1173(sp)
   23efc:	84000094 	ori	r16,r16,2
   23f00:	00c00084 	movi	r3,2
   23f04:	d8012585 	stb	zero,1174(sp)
   23f08:	003f8806 	br	23d2c <___vfprintf_internal_r+0x5e4>
   23f0c:	ac800007 	ldb	r18,0(r21)
   23f10:	00c00a84 	movi	r3,42
   23f14:	adc00044 	addi	r23,r21,1
   23f18:	90c57526 	beq	r18,r3,254f0 <___vfprintf_internal_r+0x1da8>
   23f1c:	95bff404 	addi	r22,r18,-48
   23f20:	0009883a 	mov	r4,zero
   23f24:	9d84ff36 	bltu	r19,r22,25324 <___vfprintf_internal_r+0x1bdc>
   23f28:	01400284 	movi	r5,10
   23f2c:	00210140 	call	21014 <__mulsi3>
   23f30:	bc800007 	ldb	r18,0(r23)
   23f34:	b089883a 	add	r4,r22,r2
   23f38:	bdc00044 	addi	r23,r23,1
   23f3c:	95bff404 	addi	r22,r18,-48
   23f40:	9dbff92e 	bgeu	r19,r22,23f28 <___vfprintf_internal_r+0x7e0>
   23f44:	2007883a 	mov	r3,r4
   23f48:	20044316 	blt	r4,zero,25058 <___vfprintf_internal_r+0x1910>
   23f4c:	b82b883a 	mov	r21,r23
   23f50:	003e5a06 	br	238bc <___vfprintf_internal_r+0x174>
   23f54:	ac800007 	ldb	r18,0(r21)
   23f58:	01001b04 	movi	r4,108
   23f5c:	a805883a 	mov	r2,r21
   23f60:	91045526 	beq	r18,r4,250b8 <___vfprintf_internal_r+0x1970>
   23f64:	84000414 	ori	r16,r16,16
   23f68:	003e5306 	br	238b8 <___vfprintf_internal_r+0x170>
   23f6c:	8080080c 	andi	r2,r16,32
   23f70:	e013883a 	mov	r9,fp
   23f74:	10034026 	beq	r2,zero,24c78 <___vfprintf_internal_r+0x1530>
   23f78:	d9012d17 	ldw	r4,1204(sp)
   23f7c:	20800017 	ldw	r2,0(r4)
   23f80:	d9012c17 	ldw	r4,1200(sp)
   23f84:	2007d7fa 	srai	r3,r4,31
   23f88:	d9012d17 	ldw	r4,1204(sp)
   23f8c:	10c00115 	stw	r3,4(r2)
   23f90:	21000104 	addi	r4,r4,4
   23f94:	d9012d15 	stw	r4,1204(sp)
   23f98:	d9012c17 	ldw	r4,1200(sp)
   23f9c:	11000015 	stw	r4,0(r2)
   23fa0:	003e1f06 	br	23820 <___vfprintf_internal_r+0xd8>
   23fa4:	d9012d17 	ldw	r4,1204(sp)
   23fa8:	21000017 	ldw	r4,0(r4)
   23fac:	d9012e15 	stw	r4,1208(sp)
   23fb0:	d9012d17 	ldw	r4,1204(sp)
   23fb4:	20800104 	addi	r2,r4,4
   23fb8:	d9012e17 	ldw	r4,1208(sp)
   23fbc:	203ee716 	blt	r4,zero,23b5c <___vfprintf_internal_r+0x414>
   23fc0:	d8812d15 	stw	r2,1204(sp)
   23fc4:	ac800007 	ldb	r18,0(r21)
   23fc8:	003e3b06 	br	238b8 <___vfprintf_internal_r+0x170>
   23fcc:	e013883a 	mov	r9,fp
   23fd0:	1839883a 	mov	fp,r3
   23fd4:	d8c12d17 	ldw	r3,1204(sp)
   23fd8:	00800c04 	movi	r2,48
   23fdc:	010000f4 	movhi	r4,3
   23fe0:	213a0004 	addi	r4,r4,-6144
   23fe4:	1dc00017 	ldw	r23,0(r3)
   23fe8:	18c00104 	addi	r3,r3,4
   23fec:	d8812505 	stb	r2,1172(sp)
   23ff0:	00801e04 	movi	r2,120
   23ff4:	d8812545 	stb	r2,1173(sp)
   23ff8:	d8c12d15 	stw	r3,1204(sp)
   23ffc:	002d883a 	mov	r22,zero
   24000:	84000094 	ori	r16,r16,2
   24004:	d9013615 	stw	r4,1240(sp)
   24008:	00c00084 	movi	r3,2
   2400c:	04801e04 	movi	r18,120
   24010:	b805883a 	mov	r2,r23
   24014:	d8012585 	stb	zero,1174(sp)
   24018:	003f4406 	br	23d2c <___vfprintf_internal_r+0x5e4>
   2401c:	84000814 	ori	r16,r16,32
   24020:	ac800007 	ldb	r18,0(r21)
   24024:	003e2406 	br	238b8 <___vfprintf_internal_r+0x170>
   24028:	d8812d17 	ldw	r2,1204(sp)
   2402c:	d8012585 	stb	zero,1174(sp)
   24030:	e013883a 	mov	r9,fp
   24034:	14c00017 	ldw	r19,0(r2)
   24038:	1839883a 	mov	fp,r3
   2403c:	15c00104 	addi	r23,r2,4
   24040:	98045526 	beq	r19,zero,25198 <___vfprintf_internal_r+0x1a50>
   24044:	9809883a 	mov	r4,r19
   24048:	18043116 	blt	r3,zero,25110 <___vfprintf_internal_r+0x19c8>
   2404c:	000b883a 	mov	r5,zero
   24050:	180d883a 	mov	r6,r3
   24054:	da413c15 	stw	r9,1264(sp)
   24058:	00277ac0 	call	277ac <memchr>
   2405c:	da413c17 	ldw	r9,1264(sp)
   24060:	10047a26 	beq	r2,zero,2524c <___vfprintf_internal_r+0x1b04>
   24064:	14c5c83a 	sub	r2,r2,r19
   24068:	d8812b15 	stw	r2,1196(sp)
   2406c:	e083d40e 	bge	fp,r2,24fc0 <___vfprintf_internal_r+0x1878>
   24070:	df012815 	stw	fp,1184(sp)
   24074:	e004e416 	blt	fp,zero,25408 <___vfprintf_internal_r+0x1cc0>
   24078:	d8812583 	ldbu	r2,1174(sp)
   2407c:	df012b15 	stw	fp,1196(sp)
   24080:	ddc12d15 	stw	r23,1204(sp)
   24084:	d8013115 	stw	zero,1220(sp)
   24088:	003f3c06 	br	23d7c <___vfprintf_internal_r+0x634>
   2408c:	008000f4 	movhi	r2,3
   24090:	10ba0004 	addi	r2,r2,-6144
   24094:	d8813615 	stw	r2,1240(sp)
   24098:	8080080c 	andi	r2,r16,32
   2409c:	e013883a 	mov	r9,fp
   240a0:	1839883a 	mov	fp,r3
   240a4:	103f891e 	bne	r2,zero,23ecc <___vfprintf_internal_r+0x784>
   240a8:	8080040c 	andi	r2,r16,16
   240ac:	1002c326 	beq	r2,zero,24bbc <___vfprintf_internal_r+0x1474>
   240b0:	d8812d17 	ldw	r2,1204(sp)
   240b4:	002d883a 	mov	r22,zero
   240b8:	15c00017 	ldw	r23,0(r2)
   240bc:	10800104 	addi	r2,r2,4
   240c0:	d8812d15 	stw	r2,1204(sp)
   240c4:	003f8606 	br	23ee0 <___vfprintf_internal_r+0x798>
   240c8:	84001014 	ori	r16,r16,64
   240cc:	ac800007 	ldb	r18,0(r21)
   240d0:	003df906 	br	238b8 <___vfprintf_internal_r+0x170>
   240d4:	d8812587 	ldb	r2,1174(sp)
   240d8:	1002e51e 	bne	r2,zero,24c70 <___vfprintf_internal_r+0x1528>
   240dc:	00800804 	movi	r2,32
   240e0:	d8812585 	stb	r2,1174(sp)
   240e4:	ac800007 	ldb	r18,0(r21)
   240e8:	003df306 	br	238b8 <___vfprintf_internal_r+0x170>
   240ec:	84000054 	ori	r16,r16,1
   240f0:	ac800007 	ldb	r18,0(r21)
   240f4:	003df006 	br	238b8 <___vfprintf_internal_r+0x170>
   240f8:	84002014 	ori	r16,r16,128
   240fc:	ac800007 	ldb	r18,0(r21)
   24100:	003ded06 	br	238b8 <___vfprintf_internal_r+0x170>
   24104:	0009883a 	mov	r4,zero
   24108:	95bff404 	addi	r22,r18,-48
   2410c:	182f883a 	mov	r23,r3
   24110:	01400284 	movi	r5,10
   24114:	00210140 	call	21014 <__mulsi3>
   24118:	ac800007 	ldb	r18,0(r21)
   2411c:	1589883a 	add	r4,r2,r22
   24120:	ad400044 	addi	r21,r21,1
   24124:	95bff404 	addi	r22,r18,-48
   24128:	9dbff92e 	bgeu	r19,r22,24110 <___vfprintf_internal_r+0x9c8>
   2412c:	b807883a 	mov	r3,r23
   24130:	d9012e15 	stw	r4,1208(sp)
   24134:	003de106 	br	238bc <___vfprintf_internal_r+0x174>
   24138:	00800ac4 	movi	r2,43
   2413c:	d8812585 	stb	r2,1174(sp)
   24140:	ac800007 	ldb	r18,0(r21)
   24144:	003ddc06 	br	238b8 <___vfprintf_internal_r+0x170>
   24148:	d8c12d17 	ldw	r3,1204(sp)
   2414c:	d9012d17 	ldw	r4,1204(sp)
   24150:	e013883a 	mov	r9,fp
   24154:	18800017 	ldw	r2,0(r3)
   24158:	21000104 	addi	r4,r4,4
   2415c:	00c00044 	movi	r3,1
   24160:	d8c12815 	stw	r3,1184(sp)
   24164:	d8012585 	stb	zero,1174(sp)
   24168:	d8810405 	stb	r2,1040(sp)
   2416c:	d9012d15 	stw	r4,1204(sp)
   24170:	d8c12b15 	stw	r3,1196(sp)
   24174:	dcc10404 	addi	r19,sp,1040
   24178:	003dda06 	br	238e4 <___vfprintf_internal_r+0x19c>
   2417c:	e013883a 	mov	r9,fp
   24180:	1839883a 	mov	fp,r3
   24184:	003ed806 	br	23ce8 <___vfprintf_internal_r+0x5a0>
   24188:	e013883a 	mov	r9,fp
   2418c:	1839883a 	mov	fp,r3
   24190:	003f2d06 	br	23e48 <___vfprintf_internal_r+0x700>
   24194:	e013883a 	mov	r9,fp
   24198:	1839883a 	mov	fp,r3
   2419c:	003f3806 	br	23e80 <___vfprintf_internal_r+0x738>
   241a0:	da011d17 	ldw	r8,1140(sp)
   241a4:	d8c11c17 	ldw	r3,1136(sp)
   241a8:	d8812587 	ldb	r2,1174(sp)
   241ac:	10000b26 	beq	r2,zero,241dc <___vfprintf_internal_r+0xa94>
   241b0:	d8812584 	addi	r2,sp,1174
   241b4:	48800015 	stw	r2,0(r9)
   241b8:	00800044 	movi	r2,1
   241bc:	48800115 	stw	r2,4(r9)
   241c0:	4091883a 	add	r8,r8,r2
   241c4:	1887883a 	add	r3,r3,r2
   241c8:	da011d15 	stw	r8,1140(sp)
   241cc:	d8c11c15 	stw	r3,1136(sp)
   241d0:	008001c4 	movi	r2,7
   241d4:	10c18e16 	blt	r2,r3,24810 <___vfprintf_internal_r+0x10c8>
   241d8:	4a400204 	addi	r9,r9,8
   241dc:	d9012a17 	ldw	r4,1192(sp)
   241e0:	20000b26 	beq	r4,zero,24210 <___vfprintf_internal_r+0xac8>
   241e4:	d8812504 	addi	r2,sp,1172
   241e8:	48800015 	stw	r2,0(r9)
   241ec:	00800084 	movi	r2,2
   241f0:	48800115 	stw	r2,4(r9)
   241f4:	4091883a 	add	r8,r8,r2
   241f8:	18c00044 	addi	r3,r3,1
   241fc:	da011d15 	stw	r8,1140(sp)
   24200:	d8c11c15 	stw	r3,1136(sp)
   24204:	008001c4 	movi	r2,7
   24208:	10c17816 	blt	r2,r3,247ec <___vfprintf_internal_r+0x10a4>
   2420c:	4a400204 	addi	r9,r9,8
   24210:	d9012f17 	ldw	r4,1212(sp)
   24214:	00802004 	movi	r2,128
   24218:	2080fc26 	beq	r4,r2,2460c <___vfprintf_internal_r+0xec4>
   2421c:	d8813117 	ldw	r2,1220(sp)
   24220:	d9012b17 	ldw	r4,1196(sp)
   24224:	112fc83a 	sub	r23,r2,r4
   24228:	05c02a0e 	bge	zero,r23,242d4 <___vfprintf_internal_r+0xb8c>
   2422c:	07000404 	movi	fp,16
   24230:	050000f4 	movhi	r20,3
   24234:	a53a0b84 	addi	r20,r20,-6098
   24238:	e5c01d0e 	bge	fp,r23,242b0 <___vfprintf_internal_r+0xb68>
   2423c:	dc812a15 	stw	r18,1192(sp)
   24240:	058001c4 	movi	r22,7
   24244:	a025883a 	mov	r18,r20
   24248:	8029883a 	mov	r20,r16
   2424c:	dc012917 	ldw	r16,1188(sp)
   24250:	00000306 	br	24260 <___vfprintf_internal_r+0xb18>
   24254:	bdfffc04 	addi	r23,r23,-16
   24258:	4a400204 	addi	r9,r9,8
   2425c:	e5c0110e 	bge	fp,r23,242a4 <___vfprintf_internal_r+0xb5c>
   24260:	4c800015 	stw	r18,0(r9)
   24264:	4f000115 	stw	fp,4(r9)
   24268:	42000404 	addi	r8,r8,16
   2426c:	18c00044 	addi	r3,r3,1
   24270:	da011d15 	stw	r8,1140(sp)
   24274:	d8c11c15 	stw	r3,1136(sp)
   24278:	b0fff60e 	bge	r22,r3,24254 <___vfprintf_internal_r+0xb0c>
   2427c:	8809883a 	mov	r4,r17
   24280:	800b883a 	mov	r5,r16
   24284:	d9811b04 	addi	r6,sp,1132
   24288:	00237140 	call	23714 <__sprint_r>
   2428c:	103e741e 	bne	r2,zero,23c60 <___vfprintf_internal_r+0x518>
   24290:	bdfffc04 	addi	r23,r23,-16
   24294:	da011d17 	ldw	r8,1140(sp)
   24298:	d8c11c17 	ldw	r3,1136(sp)
   2429c:	da400404 	addi	r9,sp,16
   242a0:	e5ffef16 	blt	fp,r23,24260 <___vfprintf_internal_r+0xb18>
   242a4:	a021883a 	mov	r16,r20
   242a8:	9029883a 	mov	r20,r18
   242ac:	dc812a17 	ldw	r18,1192(sp)
   242b0:	4d000015 	stw	r20,0(r9)
   242b4:	4dc00115 	stw	r23,4(r9)
   242b8:	45d1883a 	add	r8,r8,r23
   242bc:	18c00044 	addi	r3,r3,1
   242c0:	da011d15 	stw	r8,1140(sp)
   242c4:	d8c11c15 	stw	r3,1136(sp)
   242c8:	008001c4 	movi	r2,7
   242cc:	10c13e16 	blt	r2,r3,247c8 <___vfprintf_internal_r+0x1080>
   242d0:	4a400204 	addi	r9,r9,8
   242d4:	8080400c 	andi	r2,r16,256
   242d8:	1000831e 	bne	r2,zero,244e8 <___vfprintf_internal_r+0xda0>
   242dc:	d8812b17 	ldw	r2,1196(sp)
   242e0:	4cc00015 	stw	r19,0(r9)
   242e4:	48800115 	stw	r2,4(r9)
   242e8:	4091883a 	add	r8,r8,r2
   242ec:	18c00044 	addi	r3,r3,1
   242f0:	da011d15 	stw	r8,1140(sp)
   242f4:	d8c11c15 	stw	r3,1136(sp)
   242f8:	008001c4 	movi	r2,7
   242fc:	10c05316 	blt	r2,r3,2444c <___vfprintf_internal_r+0xd04>
   24300:	4a400204 	addi	r9,r9,8
   24304:	8400010c 	andi	r16,r16,4
   24308:	80002e26 	beq	r16,zero,243c4 <___vfprintf_internal_r+0xc7c>
   2430c:	d8812e17 	ldw	r2,1208(sp)
   24310:	d8c12817 	ldw	r3,1184(sp)
   24314:	10e1c83a 	sub	r16,r2,r3
   24318:	04002a0e 	bge	zero,r16,243c4 <___vfprintf_internal_r+0xc7c>
   2431c:	04800404 	movi	r18,16
   24320:	d8c11c17 	ldw	r3,1136(sp)
   24324:	05c000f4 	movhi	r23,3
   24328:	bdfa0784 	addi	r23,r23,-6114
   2432c:	9400170e 	bge	r18,r16,2438c <___vfprintf_internal_r+0xc44>
   24330:	04c001c4 	movi	r19,7
   24334:	dd012917 	ldw	r20,1188(sp)
   24338:	00000306 	br	24348 <___vfprintf_internal_r+0xc00>
   2433c:	843ffc04 	addi	r16,r16,-16
   24340:	4a400204 	addi	r9,r9,8
   24344:	9400110e 	bge	r18,r16,2438c <___vfprintf_internal_r+0xc44>
   24348:	4dc00015 	stw	r23,0(r9)
   2434c:	4c800115 	stw	r18,4(r9)
   24350:	42000404 	addi	r8,r8,16
   24354:	18c00044 	addi	r3,r3,1
   24358:	da011d15 	stw	r8,1140(sp)
   2435c:	d8c11c15 	stw	r3,1136(sp)
   24360:	98fff60e 	bge	r19,r3,2433c <___vfprintf_internal_r+0xbf4>
   24364:	8809883a 	mov	r4,r17
   24368:	a00b883a 	mov	r5,r20
   2436c:	d9811b04 	addi	r6,sp,1132
   24370:	00237140 	call	23714 <__sprint_r>
   24374:	103e3a1e 	bne	r2,zero,23c60 <___vfprintf_internal_r+0x518>
   24378:	843ffc04 	addi	r16,r16,-16
   2437c:	da011d17 	ldw	r8,1140(sp)
   24380:	d8c11c17 	ldw	r3,1136(sp)
   24384:	da400404 	addi	r9,sp,16
   24388:	943fef16 	blt	r18,r16,24348 <___vfprintf_internal_r+0xc00>
   2438c:	4dc00015 	stw	r23,0(r9)
   24390:	4c000115 	stw	r16,4(r9)
   24394:	8211883a 	add	r8,r16,r8
   24398:	18c00044 	addi	r3,r3,1
   2439c:	da011d15 	stw	r8,1140(sp)
   243a0:	d8c11c15 	stw	r3,1136(sp)
   243a4:	008001c4 	movi	r2,7
   243a8:	10c0060e 	bge	r2,r3,243c4 <___vfprintf_internal_r+0xc7c>
   243ac:	d9412917 	ldw	r5,1188(sp)
   243b0:	8809883a 	mov	r4,r17
   243b4:	d9811b04 	addi	r6,sp,1132
   243b8:	00237140 	call	23714 <__sprint_r>
   243bc:	103e281e 	bne	r2,zero,23c60 <___vfprintf_internal_r+0x518>
   243c0:	da011d17 	ldw	r8,1140(sp)
   243c4:	dd012817 	ldw	r20,1184(sp)
   243c8:	d9012e17 	ldw	r4,1208(sp)
   243cc:	a100010e 	bge	r20,r4,243d4 <___vfprintf_internal_r+0xc8c>
   243d0:	2029883a 	mov	r20,r4
   243d4:	d8812c17 	ldw	r2,1200(sp)
   243d8:	1505883a 	add	r2,r2,r20
   243dc:	d8812c15 	stw	r2,1200(sp)
   243e0:	4000b91e 	bne	r8,zero,246c8 <___vfprintf_internal_r+0xf80>
   243e4:	d8011c15 	stw	zero,1136(sp)
   243e8:	a8800007 	ldb	r2,0(r21)
   243ec:	da400404 	addi	r9,sp,16
   243f0:	103d0d1e 	bne	r2,zero,23828 <___vfprintf_internal_r+0xe0>
   243f4:	a825883a 	mov	r18,r21
   243f8:	003d2306 	br	23888 <___vfprintf_internal_r+0x140>
   243fc:	d9412917 	ldw	r5,1188(sp)
   24400:	8809883a 	mov	r4,r17
   24404:	d9811b04 	addi	r6,sp,1132
   24408:	00237140 	call	23714 <__sprint_r>
   2440c:	103e141e 	bne	r2,zero,23c60 <___vfprintf_internal_r+0x518>
   24410:	da011d17 	ldw	r8,1140(sp)
   24414:	da400404 	addi	r9,sp,16
   24418:	8080004c 	andi	r2,r16,1
   2441c:	103fb926 	beq	r2,zero,24304 <___vfprintf_internal_r+0xbbc>
   24420:	d8c11c17 	ldw	r3,1136(sp)
   24424:	d9013717 	ldw	r4,1244(sp)
   24428:	00800044 	movi	r2,1
   2442c:	48800115 	stw	r2,4(r9)
   24430:	49000015 	stw	r4,0(r9)
   24434:	4091883a 	add	r8,r8,r2
   24438:	1887883a 	add	r3,r3,r2
   2443c:	da011d15 	stw	r8,1140(sp)
   24440:	d8c11c15 	stw	r3,1136(sp)
   24444:	008001c4 	movi	r2,7
   24448:	10ffad0e 	bge	r2,r3,24300 <___vfprintf_internal_r+0xbb8>
   2444c:	d9412917 	ldw	r5,1188(sp)
   24450:	8809883a 	mov	r4,r17
   24454:	d9811b04 	addi	r6,sp,1132
   24458:	00237140 	call	23714 <__sprint_r>
   2445c:	103e001e 	bne	r2,zero,23c60 <___vfprintf_internal_r+0x518>
   24460:	da400404 	addi	r9,sp,16
   24464:	da011d17 	ldw	r8,1140(sp)
   24468:	003fa606 	br	24304 <___vfprintf_internal_r+0xbbc>
   2446c:	18803fcc 	andi	r2,r3,255
   24470:	00c00044 	movi	r3,1
   24474:	10c10126 	beq	r2,r3,2487c <___vfprintf_internal_r+0x1134>
   24478:	00c00084 	movi	r3,2
   2447c:	10c0ed26 	beq	r2,r3,24834 <___vfprintf_internal_r+0x10ec>
   24480:	d8c10dc4 	addi	r3,sp,1079
   24484:	b808d0fa 	srli	r4,r23,3
   24488:	b00a977a 	slli	r5,r22,29
   2448c:	b02cd0fa 	srli	r22,r22,3
   24490:	bdc001cc 	andi	r23,r23,7
   24494:	b8800c04 	addi	r2,r23,48
   24498:	292eb03a 	or	r23,r5,r4
   2449c:	18800005 	stb	r2,0(r3)
   244a0:	bd88b03a 	or	r4,r23,r22
   244a4:	1827883a 	mov	r19,r3
   244a8:	18ffffc4 	addi	r3,r3,-1
   244ac:	203ff51e 	bne	r4,zero,24484 <___vfprintf_internal_r+0xd3c>
   244b0:	8100004c 	andi	r4,r16,1
   244b4:	980b883a 	mov	r5,r19
   244b8:	20000726 	beq	r4,zero,244d8 <___vfprintf_internal_r+0xd90>
   244bc:	10803fcc 	andi	r2,r2,255
   244c0:	1080201c 	xori	r2,r2,128
   244c4:	10bfe004 	addi	r2,r2,-128
   244c8:	01000c04 	movi	r4,48
   244cc:	11000226 	beq	r2,r4,244d8 <___vfprintf_internal_r+0xd90>
   244d0:	1827883a 	mov	r19,r3
   244d4:	293fffc5 	stb	r4,-1(r5)
   244d8:	d8812717 	ldw	r2,1180(sp)
   244dc:	14c5c83a 	sub	r2,r2,r19
   244e0:	d8812b15 	stw	r2,1196(sp)
   244e4:	003e1f06 	br	23d64 <___vfprintf_internal_r+0x61c>
   244e8:	00801944 	movi	r2,101
   244ec:	14807c0e 	bge	r2,r18,246e0 <___vfprintf_internal_r+0xf98>
   244f0:	d9013317 	ldw	r4,1228(sp)
   244f4:	d9413417 	ldw	r5,1232(sp)
   244f8:	000d883a 	mov	r6,zero
   244fc:	000f883a 	mov	r7,zero
   24500:	d8c13b15 	stw	r3,1260(sp)
   24504:	da013a15 	stw	r8,1256(sp)
   24508:	da413c15 	stw	r9,1264(sp)
   2450c:	002a7d40 	call	2a7d4 <__eqdf2>
   24510:	d8c13b17 	ldw	r3,1260(sp)
   24514:	da013a17 	ldw	r8,1256(sp)
   24518:	da413c17 	ldw	r9,1264(sp)
   2451c:	1001001e 	bne	r2,zero,24920 <___vfprintf_internal_r+0x11d8>
   24520:	008000f4 	movhi	r2,3
   24524:	10ba0704 	addi	r2,r2,-6116
   24528:	48800015 	stw	r2,0(r9)
   2452c:	00800044 	movi	r2,1
   24530:	48800115 	stw	r2,4(r9)
   24534:	4091883a 	add	r8,r8,r2
   24538:	1887883a 	add	r3,r3,r2
   2453c:	da011d15 	stw	r8,1140(sp)
   24540:	d8c11c15 	stw	r3,1136(sp)
   24544:	008001c4 	movi	r2,7
   24548:	10c20316 	blt	r2,r3,24d58 <___vfprintf_internal_r+0x1610>
   2454c:	4a400204 	addi	r9,r9,8
   24550:	d8812417 	ldw	r2,1168(sp)
   24554:	d8c13217 	ldw	r3,1224(sp)
   24558:	10c00216 	blt	r2,r3,24564 <___vfprintf_internal_r+0xe1c>
   2455c:	8080004c 	andi	r2,r16,1
   24560:	103f6826 	beq	r2,zero,24304 <___vfprintf_internal_r+0xbbc>
   24564:	d8c11c17 	ldw	r3,1136(sp)
   24568:	d9013717 	ldw	r4,1244(sp)
   2456c:	00800044 	movi	r2,1
   24570:	48800115 	stw	r2,4(r9)
   24574:	49000015 	stw	r4,0(r9)
   24578:	4091883a 	add	r8,r8,r2
   2457c:	1887883a 	add	r3,r3,r2
   24580:	da011d15 	stw	r8,1140(sp)
   24584:	d8c11c15 	stw	r3,1136(sp)
   24588:	008001c4 	movi	r2,7
   2458c:	10c2ce16 	blt	r2,r3,250c8 <___vfprintf_internal_r+0x1980>
   24590:	4a400204 	addi	r9,r9,8
   24594:	d8813217 	ldw	r2,1224(sp)
   24598:	14bfffc4 	addi	r18,r2,-1
   2459c:	04bf590e 	bge	zero,r18,24304 <___vfprintf_internal_r+0xbbc>
   245a0:	04c00404 	movi	r19,16
   245a4:	d8c11c17 	ldw	r3,1136(sp)
   245a8:	050000f4 	movhi	r20,3
   245ac:	a53a0b84 	addi	r20,r20,-6098
   245b0:	9c818a0e 	bge	r19,r18,24bdc <___vfprintf_internal_r+0x1494>
   245b4:	058001c4 	movi	r22,7
   245b8:	ddc12917 	ldw	r23,1188(sp)
   245bc:	00000306 	br	245cc <___vfprintf_internal_r+0xe84>
   245c0:	4a400204 	addi	r9,r9,8
   245c4:	94bffc04 	addi	r18,r18,-16
   245c8:	9c81840e 	bge	r19,r18,24bdc <___vfprintf_internal_r+0x1494>
   245cc:	4d000015 	stw	r20,0(r9)
   245d0:	4cc00115 	stw	r19,4(r9)
   245d4:	42000404 	addi	r8,r8,16
   245d8:	18c00044 	addi	r3,r3,1
   245dc:	da011d15 	stw	r8,1140(sp)
   245e0:	d8c11c15 	stw	r3,1136(sp)
   245e4:	b0fff60e 	bge	r22,r3,245c0 <___vfprintf_internal_r+0xe78>
   245e8:	8809883a 	mov	r4,r17
   245ec:	b80b883a 	mov	r5,r23
   245f0:	d9811b04 	addi	r6,sp,1132
   245f4:	00237140 	call	23714 <__sprint_r>
   245f8:	103d991e 	bne	r2,zero,23c60 <___vfprintf_internal_r+0x518>
   245fc:	da011d17 	ldw	r8,1140(sp)
   24600:	d8c11c17 	ldw	r3,1136(sp)
   24604:	da400404 	addi	r9,sp,16
   24608:	003fee06 	br	245c4 <___vfprintf_internal_r+0xe7c>
   2460c:	d8812e17 	ldw	r2,1208(sp)
   24610:	d9012817 	ldw	r4,1184(sp)
   24614:	112fc83a 	sub	r23,r2,r4
   24618:	05ff000e 	bge	zero,r23,2421c <___vfprintf_internal_r+0xad4>
   2461c:	07000404 	movi	fp,16
   24620:	050000f4 	movhi	r20,3
   24624:	a53a0b84 	addi	r20,r20,-6098
   24628:	e5c01d0e 	bge	fp,r23,246a0 <___vfprintf_internal_r+0xf58>
   2462c:	dc812a15 	stw	r18,1192(sp)
   24630:	058001c4 	movi	r22,7
   24634:	a025883a 	mov	r18,r20
   24638:	8029883a 	mov	r20,r16
   2463c:	dc012917 	ldw	r16,1188(sp)
   24640:	00000306 	br	24650 <___vfprintf_internal_r+0xf08>
   24644:	bdfffc04 	addi	r23,r23,-16
   24648:	4a400204 	addi	r9,r9,8
   2464c:	e5c0110e 	bge	fp,r23,24694 <___vfprintf_internal_r+0xf4c>
   24650:	4c800015 	stw	r18,0(r9)
   24654:	4f000115 	stw	fp,4(r9)
   24658:	42000404 	addi	r8,r8,16
   2465c:	18c00044 	addi	r3,r3,1
   24660:	da011d15 	stw	r8,1140(sp)
   24664:	d8c11c15 	stw	r3,1136(sp)
   24668:	b0fff60e 	bge	r22,r3,24644 <___vfprintf_internal_r+0xefc>
   2466c:	8809883a 	mov	r4,r17
   24670:	800b883a 	mov	r5,r16
   24674:	d9811b04 	addi	r6,sp,1132
   24678:	00237140 	call	23714 <__sprint_r>
   2467c:	103d781e 	bne	r2,zero,23c60 <___vfprintf_internal_r+0x518>
   24680:	bdfffc04 	addi	r23,r23,-16
   24684:	da011d17 	ldw	r8,1140(sp)
   24688:	d8c11c17 	ldw	r3,1136(sp)
   2468c:	da400404 	addi	r9,sp,16
   24690:	e5ffef16 	blt	fp,r23,24650 <___vfprintf_internal_r+0xf08>
   24694:	a021883a 	mov	r16,r20
   24698:	9029883a 	mov	r20,r18
   2469c:	dc812a17 	ldw	r18,1192(sp)
   246a0:	4d000015 	stw	r20,0(r9)
   246a4:	4dc00115 	stw	r23,4(r9)
   246a8:	45d1883a 	add	r8,r8,r23
   246ac:	18c00044 	addi	r3,r3,1
   246b0:	da011d15 	stw	r8,1140(sp)
   246b4:	d8c11c15 	stw	r3,1136(sp)
   246b8:	008001c4 	movi	r2,7
   246bc:	10c13616 	blt	r2,r3,24b98 <___vfprintf_internal_r+0x1450>
   246c0:	4a400204 	addi	r9,r9,8
   246c4:	003ed506 	br	2421c <___vfprintf_internal_r+0xad4>
   246c8:	d9412917 	ldw	r5,1188(sp)
   246cc:	8809883a 	mov	r4,r17
   246d0:	d9811b04 	addi	r6,sp,1132
   246d4:	00237140 	call	23714 <__sprint_r>
   246d8:	103f4226 	beq	r2,zero,243e4 <___vfprintf_internal_r+0xc9c>
   246dc:	003d6006 	br	23c60 <___vfprintf_internal_r+0x518>
   246e0:	d9013217 	ldw	r4,1224(sp)
   246e4:	00800044 	movi	r2,1
   246e8:	4cc00015 	stw	r19,0(r9)
   246ec:	1101000e 	bge	r2,r4,24af0 <___vfprintf_internal_r+0x13a8>
   246f0:	00800044 	movi	r2,1
   246f4:	48800115 	stw	r2,4(r9)
   246f8:	4091883a 	add	r8,r8,r2
   246fc:	1887883a 	add	r3,r3,r2
   24700:	da011d15 	stw	r8,1140(sp)
   24704:	d8c11c15 	stw	r3,1136(sp)
   24708:	008001c4 	movi	r2,7
   2470c:	10c10c16 	blt	r2,r3,24b40 <___vfprintf_internal_r+0x13f8>
   24710:	4a400204 	addi	r9,r9,8
   24714:	d8813717 	ldw	r2,1244(sp)
   24718:	48800015 	stw	r2,0(r9)
   2471c:	00800044 	movi	r2,1
   24720:	48800115 	stw	r2,4(r9)
   24724:	4091883a 	add	r8,r8,r2
   24728:	1887883a 	add	r3,r3,r2
   2472c:	da011d15 	stw	r8,1140(sp)
   24730:	d8c11c15 	stw	r3,1136(sp)
   24734:	008001c4 	movi	r2,7
   24738:	10c10a16 	blt	r2,r3,24b64 <___vfprintf_internal_r+0x141c>
   2473c:	4c800204 	addi	r18,r9,8
   24740:	d9013317 	ldw	r4,1228(sp)
   24744:	d9413417 	ldw	r5,1232(sp)
   24748:	000d883a 	mov	r6,zero
   2474c:	000f883a 	mov	r7,zero
   24750:	d8c13b15 	stw	r3,1260(sp)
   24754:	da013a15 	stw	r8,1256(sp)
   24758:	002a8300 	call	2a830 <__nedf2>
   2475c:	d8c13b17 	ldw	r3,1260(sp)
   24760:	da013a17 	ldw	r8,1256(sp)
   24764:	1000ba26 	beq	r2,zero,24a50 <___vfprintf_internal_r+0x1308>
   24768:	d9013217 	ldw	r4,1224(sp)
   2476c:	9cc00044 	addi	r19,r19,1
   24770:	94c00015 	stw	r19,0(r18)
   24774:	20bfffc4 	addi	r2,r4,-1
   24778:	90800115 	stw	r2,4(r18)
   2477c:	4091883a 	add	r8,r8,r2
   24780:	18c00044 	addi	r3,r3,1
   24784:	da011d15 	stw	r8,1140(sp)
   24788:	d8c11c15 	stw	r3,1136(sp)
   2478c:	008001c4 	movi	r2,7
   24790:	10c0e216 	blt	r2,r3,24b1c <___vfprintf_internal_r+0x13d4>
   24794:	94800204 	addi	r18,r18,8
   24798:	d9013517 	ldw	r4,1236(sp)
   2479c:	d8811fc4 	addi	r2,sp,1151
   247a0:	90800015 	stw	r2,0(r18)
   247a4:	91000115 	stw	r4,4(r18)
   247a8:	4111883a 	add	r8,r8,r4
   247ac:	18c00044 	addi	r3,r3,1
   247b0:	da011d15 	stw	r8,1140(sp)
   247b4:	d8c11c15 	stw	r3,1136(sp)
   247b8:	008001c4 	movi	r2,7
   247bc:	10ff2316 	blt	r2,r3,2444c <___vfprintf_internal_r+0xd04>
   247c0:	92400204 	addi	r9,r18,8
   247c4:	003ecf06 	br	24304 <___vfprintf_internal_r+0xbbc>
   247c8:	d9412917 	ldw	r5,1188(sp)
   247cc:	8809883a 	mov	r4,r17
   247d0:	d9811b04 	addi	r6,sp,1132
   247d4:	00237140 	call	23714 <__sprint_r>
   247d8:	103d211e 	bne	r2,zero,23c60 <___vfprintf_internal_r+0x518>
   247dc:	da011d17 	ldw	r8,1140(sp)
   247e0:	d8c11c17 	ldw	r3,1136(sp)
   247e4:	da400404 	addi	r9,sp,16
   247e8:	003eba06 	br	242d4 <___vfprintf_internal_r+0xb8c>
   247ec:	d9412917 	ldw	r5,1188(sp)
   247f0:	8809883a 	mov	r4,r17
   247f4:	d9811b04 	addi	r6,sp,1132
   247f8:	00237140 	call	23714 <__sprint_r>
   247fc:	103d181e 	bne	r2,zero,23c60 <___vfprintf_internal_r+0x518>
   24800:	da011d17 	ldw	r8,1140(sp)
   24804:	d8c11c17 	ldw	r3,1136(sp)
   24808:	da400404 	addi	r9,sp,16
   2480c:	003e8006 	br	24210 <___vfprintf_internal_r+0xac8>
   24810:	d9412917 	ldw	r5,1188(sp)
   24814:	8809883a 	mov	r4,r17
   24818:	d9811b04 	addi	r6,sp,1132
   2481c:	00237140 	call	23714 <__sprint_r>
   24820:	103d0f1e 	bne	r2,zero,23c60 <___vfprintf_internal_r+0x518>
   24824:	da011d17 	ldw	r8,1140(sp)
   24828:	d8c11c17 	ldw	r3,1136(sp)
   2482c:	da400404 	addi	r9,sp,16
   24830:	003e6a06 	br	241dc <___vfprintf_internal_r+0xa94>
   24834:	d9413617 	ldw	r5,1240(sp)
   24838:	d8810dc4 	addi	r2,sp,1079
   2483c:	b8c003cc 	andi	r3,r23,15
   24840:	b008973a 	slli	r4,r22,28
   24844:	28c7883a 	add	r3,r5,r3
   24848:	b82ed13a 	srli	r23,r23,4
   2484c:	18c00003 	ldbu	r3,0(r3)
   24850:	b02cd13a 	srli	r22,r22,4
   24854:	25eeb03a 	or	r23,r4,r23
   24858:	10c00005 	stb	r3,0(r2)
   2485c:	bd86b03a 	or	r3,r23,r22
   24860:	1027883a 	mov	r19,r2
   24864:	10bfffc4 	addi	r2,r2,-1
   24868:	183ff41e 	bne	r3,zero,2483c <___vfprintf_internal_r+0x10f4>
   2486c:	003f1a06 	br	244d8 <___vfprintf_internal_r+0xd90>
   24870:	d8012b15 	stw	zero,1196(sp)
   24874:	dcc10e04 	addi	r19,sp,1080
   24878:	003d3a06 	br	23d64 <___vfprintf_internal_r+0x61c>
   2487c:	b0025426 	beq	r22,zero,251d0 <___vfprintf_internal_r+0x1a88>
   24880:	b807883a 	mov	r3,r23
   24884:	d8810dc4 	addi	r2,sp,1079
   24888:	882f883a 	mov	r23,r17
   2488c:	04c00244 	movi	r19,9
   24890:	8023883a 	mov	r17,r16
   24894:	da412815 	stw	r9,1184(sp)
   24898:	1821883a 	mov	r16,r3
   2489c:	8009883a 	mov	r4,r16
   248a0:	b00b883a 	mov	r5,r22
   248a4:	01800284 	movi	r6,10
   248a8:	000f883a 	mov	r7,zero
   248ac:	1029883a 	mov	r20,r2
   248b0:	002990c0 	call	2990c <__umoddi3>
   248b4:	10800c04 	addi	r2,r2,48
   248b8:	8009883a 	mov	r4,r16
   248bc:	b00b883a 	mov	r5,r22
   248c0:	a0800005 	stb	r2,0(r20)
   248c4:	01800284 	movi	r6,10
   248c8:	000f883a 	mov	r7,zero
   248cc:	00292bc0 	call	292bc <__udivdi3>
   248d0:	1021883a 	mov	r16,r2
   248d4:	182d883a 	mov	r22,r3
   248d8:	a0bfffc4 	addi	r2,r20,-1
   248dc:	183fef1e 	bne	r3,zero,2489c <___vfprintf_internal_r+0x1154>
   248e0:	9c3fee36 	bltu	r19,r16,2489c <___vfprintf_internal_r+0x1154>
   248e4:	da412817 	ldw	r9,1184(sp)
   248e8:	8005883a 	mov	r2,r16
   248ec:	8821883a 	mov	r16,r17
   248f0:	b823883a 	mov	r17,r23
   248f4:	102f883a 	mov	r23,r2
   248f8:	d8812717 	ldw	r2,1180(sp)
   248fc:	a4ffffc4 	addi	r19,r20,-1
   24900:	bdc00c04 	addi	r23,r23,48
   24904:	14c5c83a 	sub	r2,r2,r19
   24908:	a5ffffc5 	stb	r23,-1(r20)
   2490c:	d8812b15 	stw	r2,1196(sp)
   24910:	003d1406 	br	23d64 <___vfprintf_internal_r+0x61c>
   24914:	00c00044 	movi	r3,1
   24918:	bd84b03a 	or	r2,r23,r22
   2491c:	003d0306 	br	23d2c <___vfprintf_internal_r+0x5e4>
   24920:	dc812417 	ldw	r18,1168(sp)
   24924:	0481140e 	bge	zero,r18,24d78 <___vfprintf_internal_r+0x1630>
   24928:	d9013217 	ldw	r4,1224(sp)
   2492c:	4cc00015 	stw	r19,0(r9)
   24930:	9100ec16 	blt	r18,r4,24ce4 <___vfprintf_internal_r+0x159c>
   24934:	49000115 	stw	r4,4(r9)
   24938:	4111883a 	add	r8,r8,r4
   2493c:	18c00044 	addi	r3,r3,1
   24940:	da011d15 	stw	r8,1140(sp)
   24944:	d8c11c15 	stw	r3,1136(sp)
   24948:	008001c4 	movi	r2,7
   2494c:	10c23616 	blt	r2,r3,25228 <___vfprintf_internal_r+0x1ae0>
   24950:	4a400204 	addi	r9,r9,8
   24954:	d8813217 	ldw	r2,1224(sp)
   24958:	90a5c83a 	sub	r18,r18,r2
   2495c:	04beae0e 	bge	zero,r18,24418 <___vfprintf_internal_r+0xcd0>
   24960:	04c00404 	movi	r19,16
   24964:	d8c11c17 	ldw	r3,1136(sp)
   24968:	050000f4 	movhi	r20,3
   2496c:	a53a0b84 	addi	r20,r20,-6098
   24970:	9c81dd0e 	bge	r19,r18,250e8 <___vfprintf_internal_r+0x19a0>
   24974:	058001c4 	movi	r22,7
   24978:	ddc12917 	ldw	r23,1188(sp)
   2497c:	00000306 	br	2498c <___vfprintf_internal_r+0x1244>
   24980:	4a400204 	addi	r9,r9,8
   24984:	94bffc04 	addi	r18,r18,-16
   24988:	9c81d70e 	bge	r19,r18,250e8 <___vfprintf_internal_r+0x19a0>
   2498c:	4d000015 	stw	r20,0(r9)
   24990:	4cc00115 	stw	r19,4(r9)
   24994:	42000404 	addi	r8,r8,16
   24998:	18c00044 	addi	r3,r3,1
   2499c:	da011d15 	stw	r8,1140(sp)
   249a0:	d8c11c15 	stw	r3,1136(sp)
   249a4:	b0fff60e 	bge	r22,r3,24980 <___vfprintf_internal_r+0x1238>
   249a8:	8809883a 	mov	r4,r17
   249ac:	b80b883a 	mov	r5,r23
   249b0:	d9811b04 	addi	r6,sp,1132
   249b4:	00237140 	call	23714 <__sprint_r>
   249b8:	103ca91e 	bne	r2,zero,23c60 <___vfprintf_internal_r+0x518>
   249bc:	da011d17 	ldw	r8,1140(sp)
   249c0:	d8c11c17 	ldw	r3,1136(sp)
   249c4:	da400404 	addi	r9,sp,16
   249c8:	003fee06 	br	24984 <___vfprintf_internal_r+0x123c>
   249cc:	d9412917 	ldw	r5,1188(sp)
   249d0:	8809883a 	mov	r4,r17
   249d4:	d9811b04 	addi	r6,sp,1132
   249d8:	00237140 	call	23714 <__sprint_r>
   249dc:	103ca01e 	bne	r2,zero,23c60 <___vfprintf_internal_r+0x518>
   249e0:	da011d17 	ldw	r8,1140(sp)
   249e4:	d8c11c17 	ldw	r3,1136(sp)
   249e8:	da400404 	addi	r9,sp,16
   249ec:	003dee06 	br	241a8 <___vfprintf_internal_r+0xa60>
   249f0:	00c00084 	movi	r3,2
   249f4:	bd84b03a 	or	r2,r23,r22
   249f8:	d8012585 	stb	zero,1174(sp)
   249fc:	003ccb06 	br	23d2c <___vfprintf_internal_r+0x5e4>
   24a00:	8080040c 	andi	r2,r16,16
   24a04:	1000ae26 	beq	r2,zero,24cc0 <___vfprintf_internal_r+0x1578>
   24a08:	d9012d17 	ldw	r4,1204(sp)
   24a0c:	25c00017 	ldw	r23,0(r4)
   24a10:	21000104 	addi	r4,r4,4
   24a14:	d9012d15 	stw	r4,1204(sp)
   24a18:	b82dd7fa 	srai	r22,r23,31
   24a1c:	b005883a 	mov	r2,r22
   24a20:	003cb906 	br	23d08 <___vfprintf_internal_r+0x5c0>
   24a24:	8080040c 	andi	r2,r16,16
   24a28:	10007026 	beq	r2,zero,24bec <___vfprintf_internal_r+0x14a4>
   24a2c:	d8812d17 	ldw	r2,1204(sp)
   24a30:	002d883a 	mov	r22,zero
   24a34:	00c00044 	movi	r3,1
   24a38:	15c00017 	ldw	r23,0(r2)
   24a3c:	10800104 	addi	r2,r2,4
   24a40:	d8812d15 	stw	r2,1204(sp)
   24a44:	d8012585 	stb	zero,1174(sp)
   24a48:	b805883a 	mov	r2,r23
   24a4c:	003cb706 	br	23d2c <___vfprintf_internal_r+0x5e4>
   24a50:	d8813217 	ldw	r2,1224(sp)
   24a54:	14ffffc4 	addi	r19,r2,-1
   24a58:	04ff4f0e 	bge	zero,r19,24798 <___vfprintf_internal_r+0x1050>
   24a5c:	05800404 	movi	r22,16
   24a60:	050000f4 	movhi	r20,3
   24a64:	a53a0b84 	addi	r20,r20,-6098
   24a68:	b4c0470e 	bge	r22,r19,24b88 <___vfprintf_internal_r+0x1440>
   24a6c:	05c001c4 	movi	r23,7
   24a70:	df012917 	ldw	fp,1188(sp)
   24a74:	00000306 	br	24a84 <___vfprintf_internal_r+0x133c>
   24a78:	94800204 	addi	r18,r18,8
   24a7c:	9cfffc04 	addi	r19,r19,-16
   24a80:	b4c0410e 	bge	r22,r19,24b88 <___vfprintf_internal_r+0x1440>
   24a84:	95000015 	stw	r20,0(r18)
   24a88:	95800115 	stw	r22,4(r18)
   24a8c:	42000404 	addi	r8,r8,16
   24a90:	18c00044 	addi	r3,r3,1
   24a94:	da011d15 	stw	r8,1140(sp)
   24a98:	d8c11c15 	stw	r3,1136(sp)
   24a9c:	b8fff60e 	bge	r23,r3,24a78 <___vfprintf_internal_r+0x1330>
   24aa0:	8809883a 	mov	r4,r17
   24aa4:	e00b883a 	mov	r5,fp
   24aa8:	d9811b04 	addi	r6,sp,1132
   24aac:	00237140 	call	23714 <__sprint_r>
   24ab0:	103c6b1e 	bne	r2,zero,23c60 <___vfprintf_internal_r+0x518>
   24ab4:	da011d17 	ldw	r8,1140(sp)
   24ab8:	d8c11c17 	ldw	r3,1136(sp)
   24abc:	dc800404 	addi	r18,sp,16
   24ac0:	003fee06 	br	24a7c <___vfprintf_internal_r+0x1334>
   24ac4:	8080040c 	andi	r2,r16,16
   24ac8:	10005326 	beq	r2,zero,24c18 <___vfprintf_internal_r+0x14d0>
   24acc:	d8c12d17 	ldw	r3,1204(sp)
   24ad0:	002d883a 	mov	r22,zero
   24ad4:	1dc00017 	ldw	r23,0(r3)
   24ad8:	18c00104 	addi	r3,r3,4
   24adc:	d8c12d15 	stw	r3,1204(sp)
   24ae0:	b805883a 	mov	r2,r23
   24ae4:	0007883a 	mov	r3,zero
   24ae8:	d8012585 	stb	zero,1174(sp)
   24aec:	003c8f06 	br	23d2c <___vfprintf_internal_r+0x5e4>
   24af0:	8088703a 	and	r4,r16,r2
   24af4:	203efe1e 	bne	r4,zero,246f0 <___vfprintf_internal_r+0xfa8>
   24af8:	48800115 	stw	r2,4(r9)
   24afc:	42000044 	addi	r8,r8,1
   24b00:	18c00044 	addi	r3,r3,1
   24b04:	da011d15 	stw	r8,1140(sp)
   24b08:	d8c11c15 	stw	r3,1136(sp)
   24b0c:	008001c4 	movi	r2,7
   24b10:	10c00216 	blt	r2,r3,24b1c <___vfprintf_internal_r+0x13d4>
   24b14:	4c800204 	addi	r18,r9,8
   24b18:	003f1f06 	br	24798 <___vfprintf_internal_r+0x1050>
   24b1c:	d9412917 	ldw	r5,1188(sp)
   24b20:	8809883a 	mov	r4,r17
   24b24:	d9811b04 	addi	r6,sp,1132
   24b28:	00237140 	call	23714 <__sprint_r>
   24b2c:	103c4c1e 	bne	r2,zero,23c60 <___vfprintf_internal_r+0x518>
   24b30:	dc800404 	addi	r18,sp,16
   24b34:	da011d17 	ldw	r8,1140(sp)
   24b38:	d8c11c17 	ldw	r3,1136(sp)
   24b3c:	003f1606 	br	24798 <___vfprintf_internal_r+0x1050>
   24b40:	d9412917 	ldw	r5,1188(sp)
   24b44:	8809883a 	mov	r4,r17
   24b48:	d9811b04 	addi	r6,sp,1132
   24b4c:	00237140 	call	23714 <__sprint_r>
   24b50:	103c431e 	bne	r2,zero,23c60 <___vfprintf_internal_r+0x518>
   24b54:	da011d17 	ldw	r8,1140(sp)
   24b58:	d8c11c17 	ldw	r3,1136(sp)
   24b5c:	da400404 	addi	r9,sp,16
   24b60:	003eec06 	br	24714 <___vfprintf_internal_r+0xfcc>
   24b64:	d9412917 	ldw	r5,1188(sp)
   24b68:	8809883a 	mov	r4,r17
   24b6c:	d9811b04 	addi	r6,sp,1132
   24b70:	00237140 	call	23714 <__sprint_r>
   24b74:	103c3a1e 	bne	r2,zero,23c60 <___vfprintf_internal_r+0x518>
   24b78:	da011d17 	ldw	r8,1140(sp)
   24b7c:	d8c11c17 	ldw	r3,1136(sp)
   24b80:	dc800404 	addi	r18,sp,16
   24b84:	003eee06 	br	24740 <___vfprintf_internal_r+0xff8>
   24b88:	95000015 	stw	r20,0(r18)
   24b8c:	94c00115 	stw	r19,4(r18)
   24b90:	44d1883a 	add	r8,r8,r19
   24b94:	003efa06 	br	24780 <___vfprintf_internal_r+0x1038>
   24b98:	d9412917 	ldw	r5,1188(sp)
   24b9c:	8809883a 	mov	r4,r17
   24ba0:	d9811b04 	addi	r6,sp,1132
   24ba4:	00237140 	call	23714 <__sprint_r>
   24ba8:	103c2d1e 	bne	r2,zero,23c60 <___vfprintf_internal_r+0x518>
   24bac:	da011d17 	ldw	r8,1140(sp)
   24bb0:	d8c11c17 	ldw	r3,1136(sp)
   24bb4:	da400404 	addi	r9,sp,16
   24bb8:	003d9806 	br	2421c <___vfprintf_internal_r+0xad4>
   24bbc:	8080100c 	andi	r2,r16,64
   24bc0:	10011626 	beq	r2,zero,2501c <___vfprintf_internal_r+0x18d4>
   24bc4:	d8c12d17 	ldw	r3,1204(sp)
   24bc8:	002d883a 	mov	r22,zero
   24bcc:	1dc0000b 	ldhu	r23,0(r3)
   24bd0:	18c00104 	addi	r3,r3,4
   24bd4:	d8c12d15 	stw	r3,1204(sp)
   24bd8:	003cc106 	br	23ee0 <___vfprintf_internal_r+0x798>
   24bdc:	4d000015 	stw	r20,0(r9)
   24be0:	4c800115 	stw	r18,4(r9)
   24be4:	4491883a 	add	r8,r8,r18
   24be8:	003dc006 	br	242ec <___vfprintf_internal_r+0xba4>
   24bec:	8080100c 	andi	r2,r16,64
   24bf0:	10010126 	beq	r2,zero,24ff8 <___vfprintf_internal_r+0x18b0>
   24bf4:	d8c12d17 	ldw	r3,1204(sp)
   24bf8:	002d883a 	mov	r22,zero
   24bfc:	1dc0000b 	ldhu	r23,0(r3)
   24c00:	18c00104 	addi	r3,r3,4
   24c04:	d8c12d15 	stw	r3,1204(sp)
   24c08:	b805883a 	mov	r2,r23
   24c0c:	00c00044 	movi	r3,1
   24c10:	d8012585 	stb	zero,1174(sp)
   24c14:	003c4506 	br	23d2c <___vfprintf_internal_r+0x5e4>
   24c18:	8080100c 	andi	r2,r16,64
   24c1c:	10010526 	beq	r2,zero,25034 <___vfprintf_internal_r+0x18ec>
   24c20:	d9012d17 	ldw	r4,1204(sp)
   24c24:	002d883a 	mov	r22,zero
   24c28:	0007883a 	mov	r3,zero
   24c2c:	25c0000b 	ldhu	r23,0(r4)
   24c30:	21000104 	addi	r4,r4,4
   24c34:	d9012d15 	stw	r4,1204(sp)
   24c38:	b805883a 	mov	r2,r23
   24c3c:	d8012585 	stb	zero,1174(sp)
   24c40:	003c3a06 	br	23d2c <___vfprintf_internal_r+0x5e4>
   24c44:	d8812d17 	ldw	r2,1204(sp)
   24c48:	15800017 	ldw	r22,0(r2)
   24c4c:	15000117 	ldw	r20,4(r2)
   24c50:	10800204 	addi	r2,r2,8
   24c54:	d8812d15 	stw	r2,1204(sp)
   24c58:	dd813315 	stw	r22,1228(sp)
   24c5c:	dd013415 	stw	r20,1232(sp)
   24c60:	003c5906 	br	23dc8 <___vfprintf_internal_r+0x680>
   24c64:	00c00084 	movi	r3,2
   24c68:	d8012585 	stb	zero,1174(sp)
   24c6c:	003c2f06 	br	23d2c <___vfprintf_internal_r+0x5e4>
   24c70:	ac800007 	ldb	r18,0(r21)
   24c74:	003b1006 	br	238b8 <___vfprintf_internal_r+0x170>
   24c78:	8080040c 	andi	r2,r16,16
   24c7c:	1000091e 	bne	r2,zero,24ca4 <___vfprintf_internal_r+0x155c>
   24c80:	8400100c 	andi	r16,r16,64
   24c84:	80000726 	beq	r16,zero,24ca4 <___vfprintf_internal_r+0x155c>
   24c88:	d8c12d17 	ldw	r3,1204(sp)
   24c8c:	d9012c17 	ldw	r4,1200(sp)
   24c90:	18800017 	ldw	r2,0(r3)
   24c94:	18c00104 	addi	r3,r3,4
   24c98:	d8c12d15 	stw	r3,1204(sp)
   24c9c:	1100000d 	sth	r4,0(r2)
   24ca0:	003adf06 	br	23820 <___vfprintf_internal_r+0xd8>
   24ca4:	d8c12d17 	ldw	r3,1204(sp)
   24ca8:	d9012c17 	ldw	r4,1200(sp)
   24cac:	18800017 	ldw	r2,0(r3)
   24cb0:	18c00104 	addi	r3,r3,4
   24cb4:	d8c12d15 	stw	r3,1204(sp)
   24cb8:	11000015 	stw	r4,0(r2)
   24cbc:	003ad806 	br	23820 <___vfprintf_internal_r+0xd8>
   24cc0:	8080100c 	andi	r2,r16,64
   24cc4:	1000c526 	beq	r2,zero,24fdc <___vfprintf_internal_r+0x1894>
   24cc8:	d8812d17 	ldw	r2,1204(sp)
   24ccc:	15c0000f 	ldh	r23,0(r2)
   24cd0:	10800104 	addi	r2,r2,4
   24cd4:	d8812d15 	stw	r2,1204(sp)
   24cd8:	b82dd7fa 	srai	r22,r23,31
   24cdc:	b005883a 	mov	r2,r22
   24ce0:	003c0906 	br	23d08 <___vfprintf_internal_r+0x5c0>
   24ce4:	4c800115 	stw	r18,4(r9)
   24ce8:	9211883a 	add	r8,r18,r8
   24cec:	18c00044 	addi	r3,r3,1
   24cf0:	da011d15 	stw	r8,1140(sp)
   24cf4:	d8c11c15 	stw	r3,1136(sp)
   24cf8:	008001c4 	movi	r2,7
   24cfc:	10c14016 	blt	r2,r3,25200 <___vfprintf_internal_r+0x1ab8>
   24d00:	4a400204 	addi	r9,r9,8
   24d04:	d8813717 	ldw	r2,1244(sp)
   24d08:	9ca7883a 	add	r19,r19,r18
   24d0c:	48800015 	stw	r2,0(r9)
   24d10:	00800044 	movi	r2,1
   24d14:	48800115 	stw	r2,4(r9)
   24d18:	4091883a 	add	r8,r8,r2
   24d1c:	1887883a 	add	r3,r3,r2
   24d20:	da011d15 	stw	r8,1140(sp)
   24d24:	d8c11c15 	stw	r3,1136(sp)
   24d28:	008001c4 	movi	r2,7
   24d2c:	10c12c16 	blt	r2,r3,251e0 <___vfprintf_internal_r+0x1a98>
   24d30:	4a400204 	addi	r9,r9,8
   24d34:	d9013217 	ldw	r4,1224(sp)
   24d38:	da011d17 	ldw	r8,1140(sp)
   24d3c:	d8c11c17 	ldw	r3,1136(sp)
   24d40:	24a5c83a 	sub	r18,r4,r18
   24d44:	4cc00015 	stw	r19,0(r9)
   24d48:	003fa506 	br	24be0 <___vfprintf_internal_r+0x1498>
   24d4c:	04c000f4 	movhi	r19,3
   24d50:	9cf9f804 	addi	r19,r19,-6176
   24d54:	003c2e06 	br	23e10 <___vfprintf_internal_r+0x6c8>
   24d58:	d9412917 	ldw	r5,1188(sp)
   24d5c:	8809883a 	mov	r4,r17
   24d60:	d9811b04 	addi	r6,sp,1132
   24d64:	00237140 	call	23714 <__sprint_r>
   24d68:	103bbd1e 	bne	r2,zero,23c60 <___vfprintf_internal_r+0x518>
   24d6c:	da011d17 	ldw	r8,1140(sp)
   24d70:	da400404 	addi	r9,sp,16
   24d74:	003df606 	br	24550 <___vfprintf_internal_r+0xe08>
   24d78:	008000f4 	movhi	r2,3
   24d7c:	10ba0704 	addi	r2,r2,-6116
   24d80:	48800015 	stw	r2,0(r9)
   24d84:	00800044 	movi	r2,1
   24d88:	48800115 	stw	r2,4(r9)
   24d8c:	4091883a 	add	r8,r8,r2
   24d90:	1887883a 	add	r3,r3,r2
   24d94:	da011d15 	stw	r8,1140(sp)
   24d98:	d8c11c15 	stw	r3,1136(sp)
   24d9c:	008001c4 	movi	r2,7
   24da0:	10c0bc16 	blt	r2,r3,25094 <___vfprintf_internal_r+0x194c>
   24da4:	4a400204 	addi	r9,r9,8
   24da8:	9000041e 	bne	r18,zero,24dbc <___vfprintf_internal_r+0x1674>
   24dac:	d8c13217 	ldw	r3,1224(sp)
   24db0:	1800021e 	bne	r3,zero,24dbc <___vfprintf_internal_r+0x1674>
   24db4:	8080004c 	andi	r2,r16,1
   24db8:	103d5226 	beq	r2,zero,24304 <___vfprintf_internal_r+0xbbc>
   24dbc:	d8c11c17 	ldw	r3,1136(sp)
   24dc0:	d9013717 	ldw	r4,1244(sp)
   24dc4:	00800044 	movi	r2,1
   24dc8:	48800115 	stw	r2,4(r9)
   24dcc:	49000015 	stw	r4,0(r9)
   24dd0:	4091883a 	add	r8,r8,r2
   24dd4:	1887883a 	add	r3,r3,r2
   24dd8:	da011d15 	stw	r8,1140(sp)
   24ddc:	d8c11c15 	stw	r3,1136(sp)
   24de0:	008001c4 	movi	r2,7
   24de4:	10c14516 	blt	r2,r3,252fc <___vfprintf_internal_r+0x1bb4>
   24de8:	4a400204 	addi	r9,r9,8
   24dec:	04a5c83a 	sub	r18,zero,r18
   24df0:	0480d70e 	bge	zero,r18,25150 <___vfprintf_internal_r+0x1a08>
   24df4:	05800404 	movi	r22,16
   24df8:	050000f4 	movhi	r20,3
   24dfc:	a53a0b84 	addi	r20,r20,-6098
   24e00:	b480db0e 	bge	r22,r18,25170 <___vfprintf_internal_r+0x1a28>
   24e04:	05c001c4 	movi	r23,7
   24e08:	df012917 	ldw	fp,1188(sp)
   24e0c:	00000306 	br	24e1c <___vfprintf_internal_r+0x16d4>
   24e10:	4a400204 	addi	r9,r9,8
   24e14:	94bffc04 	addi	r18,r18,-16
   24e18:	b480d50e 	bge	r22,r18,25170 <___vfprintf_internal_r+0x1a28>
   24e1c:	4d000015 	stw	r20,0(r9)
   24e20:	4d800115 	stw	r22,4(r9)
   24e24:	42000404 	addi	r8,r8,16
   24e28:	18c00044 	addi	r3,r3,1
   24e2c:	da011d15 	stw	r8,1140(sp)
   24e30:	d8c11c15 	stw	r3,1136(sp)
   24e34:	b8fff60e 	bge	r23,r3,24e10 <___vfprintf_internal_r+0x16c8>
   24e38:	8809883a 	mov	r4,r17
   24e3c:	e00b883a 	mov	r5,fp
   24e40:	d9811b04 	addi	r6,sp,1132
   24e44:	00237140 	call	23714 <__sprint_r>
   24e48:	103b851e 	bne	r2,zero,23c60 <___vfprintf_internal_r+0x518>
   24e4c:	da011d17 	ldw	r8,1140(sp)
   24e50:	d8c11c17 	ldw	r3,1136(sp)
   24e54:	da400404 	addi	r9,sp,16
   24e58:	003fee06 	br	24e14 <___vfprintf_internal_r+0x16cc>
   24e5c:	da413c15 	stw	r9,1264(sp)
   24e60:	00291200 	call	29120 <__isnand>
   24e64:	da413c17 	ldw	r9,1264(sp)
   24e68:	10007e1e 	bne	r2,zero,25064 <___vfprintf_internal_r+0x191c>
   24e6c:	00bfffc4 	movi	r2,-1
   24e70:	e0816a26 	beq	fp,r2,2541c <___vfprintf_internal_r+0x1cd4>
   24e74:	008019c4 	movi	r2,103
   24e78:	90816526 	beq	r18,r2,25410 <___vfprintf_internal_r+0x1cc8>
   24e7c:	008011c4 	movi	r2,71
   24e80:	90816326 	beq	r18,r2,25410 <___vfprintf_internal_r+0x1cc8>
   24e84:	80c04014 	ori	r3,r16,256
   24e88:	d8c12a15 	stw	r3,1192(sp)
   24e8c:	a0016516 	blt	r20,zero,25424 <___vfprintf_internal_r+0x1cdc>
   24e90:	d8012f05 	stb	zero,1212(sp)
   24e94:	00801984 	movi	r2,102
   24e98:	9080f226 	beq	r18,r2,25264 <___vfprintf_internal_r+0x1b1c>
   24e9c:	00801184 	movi	r2,70
   24ea0:	9080f026 	beq	r18,r2,25264 <___vfprintf_internal_r+0x1b1c>
   24ea4:	00801944 	movi	r2,101
   24ea8:	90818d26 	beq	r18,r2,254e0 <___vfprintf_internal_r+0x1d98>
   24eac:	00801144 	movi	r2,69
   24eb0:	90818b26 	beq	r18,r2,254e0 <___vfprintf_internal_r+0x1d98>
   24eb4:	e02f883a 	mov	r23,fp
   24eb8:	d8812404 	addi	r2,sp,1168
   24ebc:	d8800115 	stw	r2,4(sp)
   24ec0:	d8812304 	addi	r2,sp,1164
   24ec4:	d8800215 	stw	r2,8(sp)
   24ec8:	d8812204 	addi	r2,sp,1160
   24ecc:	ddc00015 	stw	r23,0(sp)
   24ed0:	d8800315 	stw	r2,12(sp)
   24ed4:	8809883a 	mov	r4,r17
   24ed8:	b00b883a 	mov	r5,r22
   24edc:	a00d883a 	mov	r6,r20
   24ee0:	01c00084 	movi	r7,2
   24ee4:	da413c15 	stw	r9,1264(sp)
   24ee8:	0025a680 	call	25a68 <_dtoa_r>
   24eec:	1027883a 	mov	r19,r2
   24ef0:	008019c4 	movi	r2,103
   24ef4:	da413c17 	ldw	r9,1264(sp)
   24ef8:	9081951e 	bne	r18,r2,25550 <___vfprintf_internal_r+0x1e08>
   24efc:	8080004c 	andi	r2,r16,1
   24f00:	10017926 	beq	r2,zero,254e8 <___vfprintf_internal_r+0x1da0>
   24f04:	00801184 	movi	r2,70
   24f08:	9dc7883a 	add	r3,r19,r23
   24f0c:	9080e626 	beq	r18,r2,252a8 <___vfprintf_internal_r+0x1b60>
   24f10:	b009883a 	mov	r4,r22
   24f14:	a00b883a 	mov	r5,r20
   24f18:	000d883a 	mov	r6,zero
   24f1c:	000f883a 	mov	r7,zero
   24f20:	d8c13b15 	stw	r3,1260(sp)
   24f24:	da413c15 	stw	r9,1264(sp)
   24f28:	002a7d40 	call	2a7d4 <__eqdf2>
   24f2c:	d8c13b17 	ldw	r3,1260(sp)
   24f30:	da413c17 	ldw	r9,1264(sp)
   24f34:	10000726 	beq	r2,zero,24f54 <___vfprintf_internal_r+0x180c>
   24f38:	d8812217 	ldw	r2,1160(sp)
   24f3c:	10c18a2e 	bgeu	r2,r3,25568 <___vfprintf_internal_r+0x1e20>
   24f40:	01000c04 	movi	r4,48
   24f44:	11000005 	stb	r4,0(r2)
   24f48:	10800044 	addi	r2,r2,1
   24f4c:	d8812215 	stw	r2,1160(sp)
   24f50:	10fffc1e 	bne	r2,r3,24f44 <___vfprintf_internal_r+0x17fc>
   24f54:	1cc7c83a 	sub	r3,r3,r19
   24f58:	d8c13215 	stw	r3,1224(sp)
   24f5c:	008019c4 	movi	r2,103
   24f60:	9080fa26 	beq	r18,r2,2534c <___vfprintf_internal_r+0x1c04>
   24f64:	008011c4 	movi	r2,71
   24f68:	9080f826 	beq	r18,r2,2534c <___vfprintf_internal_r+0x1c04>
   24f6c:	00801984 	movi	r2,102
   24f70:	90818e1e 	bne	r18,r2,255ac <___vfprintf_internal_r+0x1e64>
   24f74:	d8812417 	ldw	r2,1168(sp)
   24f78:	d8812b15 	stw	r2,1196(sp)
   24f7c:	00817c0e 	bge	zero,r2,25570 <___vfprintf_internal_r+0x1e28>
   24f80:	e000021e 	bne	fp,zero,24f8c <___vfprintf_internal_r+0x1844>
   24f84:	8400004c 	andi	r16,r16,1
   24f88:	80000426 	beq	r16,zero,24f9c <___vfprintf_internal_r+0x1854>
   24f8c:	d8812b17 	ldw	r2,1196(sp)
   24f90:	e2000044 	addi	r8,fp,1
   24f94:	1205883a 	add	r2,r2,r8
   24f98:	d8812b15 	stw	r2,1196(sp)
   24f9c:	d8812815 	stw	r2,1184(sp)
   24fa0:	10010b16 	blt	r2,zero,253d0 <___vfprintf_internal_r+0x1c88>
   24fa4:	ddc12f07 	ldb	r23,1212(sp)
   24fa8:	b800e426 	beq	r23,zero,2533c <___vfprintf_internal_r+0x1bf4>
   24fac:	00800b44 	movi	r2,45
   24fb0:	d8812585 	stb	r2,1174(sp)
   24fb4:	dc012a17 	ldw	r16,1192(sp)
   24fb8:	d8013115 	stw	zero,1220(sp)
   24fbc:	003b7306 	br	23d8c <___vfprintf_internal_r+0x644>
   24fc0:	d8812b17 	ldw	r2,1196(sp)
   24fc4:	d8812815 	stw	r2,1184(sp)
   24fc8:	10005716 	blt	r2,zero,25128 <___vfprintf_internal_r+0x19e0>
   24fcc:	d8812583 	ldbu	r2,1174(sp)
   24fd0:	ddc12d15 	stw	r23,1204(sp)
   24fd4:	d8013115 	stw	zero,1220(sp)
   24fd8:	003b6806 	br	23d7c <___vfprintf_internal_r+0x634>
   24fdc:	d8c12d17 	ldw	r3,1204(sp)
   24fe0:	1dc00017 	ldw	r23,0(r3)
   24fe4:	18c00104 	addi	r3,r3,4
   24fe8:	d8c12d15 	stw	r3,1204(sp)
   24fec:	b82dd7fa 	srai	r22,r23,31
   24ff0:	b005883a 	mov	r2,r22
   24ff4:	003b4406 	br	23d08 <___vfprintf_internal_r+0x5c0>
   24ff8:	d9012d17 	ldw	r4,1204(sp)
   24ffc:	002d883a 	mov	r22,zero
   25000:	00c00044 	movi	r3,1
   25004:	25c00017 	ldw	r23,0(r4)
   25008:	21000104 	addi	r4,r4,4
   2500c:	d9012d15 	stw	r4,1204(sp)
   25010:	b805883a 	mov	r2,r23
   25014:	d8012585 	stb	zero,1174(sp)
   25018:	003b4406 	br	23d2c <___vfprintf_internal_r+0x5e4>
   2501c:	d9012d17 	ldw	r4,1204(sp)
   25020:	002d883a 	mov	r22,zero
   25024:	25c00017 	ldw	r23,0(r4)
   25028:	21000104 	addi	r4,r4,4
   2502c:	d9012d15 	stw	r4,1204(sp)
   25030:	003bab06 	br	23ee0 <___vfprintf_internal_r+0x798>
   25034:	d8812d17 	ldw	r2,1204(sp)
   25038:	002d883a 	mov	r22,zero
   2503c:	0007883a 	mov	r3,zero
   25040:	15c00017 	ldw	r23,0(r2)
   25044:	10800104 	addi	r2,r2,4
   25048:	d8812d15 	stw	r2,1204(sp)
   2504c:	d8012585 	stb	zero,1174(sp)
   25050:	b805883a 	mov	r2,r23
   25054:	003b3506 	br	23d2c <___vfprintf_internal_r+0x5e4>
   25058:	00ffffc4 	movi	r3,-1
   2505c:	b82b883a 	mov	r21,r23
   25060:	003a1606 	br	238bc <___vfprintf_internal_r+0x174>
   25064:	008011c4 	movi	r2,71
   25068:	1480b116 	blt	r2,r18,25330 <___vfprintf_internal_r+0x1be8>
   2506c:	04c000f4 	movhi	r19,3
   25070:	9cf9f904 	addi	r19,r19,-6172
   25074:	00c000c4 	movi	r3,3
   25078:	00bfdfc4 	movi	r2,-129
   2507c:	80a0703a 	and	r16,r16,r2
   25080:	d8c12815 	stw	r3,1184(sp)
   25084:	d8812583 	ldbu	r2,1174(sp)
   25088:	d8c12b15 	stw	r3,1196(sp)
   2508c:	d8013115 	stw	zero,1220(sp)
   25090:	003b3a06 	br	23d7c <___vfprintf_internal_r+0x634>
   25094:	d9412917 	ldw	r5,1188(sp)
   25098:	8809883a 	mov	r4,r17
   2509c:	d9811b04 	addi	r6,sp,1132
   250a0:	00237140 	call	23714 <__sprint_r>
   250a4:	103aee1e 	bne	r2,zero,23c60 <___vfprintf_internal_r+0x518>
   250a8:	dc812417 	ldw	r18,1168(sp)
   250ac:	da011d17 	ldw	r8,1140(sp)
   250b0:	da400404 	addi	r9,sp,16
   250b4:	003f3c06 	br	24da8 <___vfprintf_internal_r+0x1660>
   250b8:	ad400044 	addi	r21,r21,1
   250bc:	84000814 	ori	r16,r16,32
   250c0:	14800047 	ldb	r18,1(r2)
   250c4:	0039fc06 	br	238b8 <___vfprintf_internal_r+0x170>
   250c8:	d9412917 	ldw	r5,1188(sp)
   250cc:	8809883a 	mov	r4,r17
   250d0:	d9811b04 	addi	r6,sp,1132
   250d4:	00237140 	call	23714 <__sprint_r>
   250d8:	103ae11e 	bne	r2,zero,23c60 <___vfprintf_internal_r+0x518>
   250dc:	da011d17 	ldw	r8,1140(sp)
   250e0:	da400404 	addi	r9,sp,16
   250e4:	003d2b06 	br	24594 <___vfprintf_internal_r+0xe4c>
   250e8:	4d000015 	stw	r20,0(r9)
   250ec:	4c800115 	stw	r18,4(r9)
   250f0:	4491883a 	add	r8,r8,r18
   250f4:	18c00044 	addi	r3,r3,1
   250f8:	da011d15 	stw	r8,1140(sp)
   250fc:	d8c11c15 	stw	r3,1136(sp)
   25100:	008001c4 	movi	r2,7
   25104:	10fcbd16 	blt	r2,r3,243fc <___vfprintf_internal_r+0xcb4>
   25108:	4a400204 	addi	r9,r9,8
   2510c:	003cc206 	br	24418 <___vfprintf_internal_r+0xcd0>
   25110:	da413c15 	stw	r9,1264(sp)
   25114:	00236880 	call	23688 <strlen>
   25118:	d8812b15 	stw	r2,1196(sp)
   2511c:	d8812815 	stw	r2,1184(sp)
   25120:	da413c17 	ldw	r9,1264(sp)
   25124:	103fa90e 	bge	r2,zero,24fcc <___vfprintf_internal_r+0x1884>
   25128:	d8012815 	stw	zero,1184(sp)
   2512c:	003fa706 	br	24fcc <___vfprintf_internal_r+0x1884>
   25130:	d9412917 	ldw	r5,1188(sp)
   25134:	8809883a 	mov	r4,r17
   25138:	d9811b04 	addi	r6,sp,1132
   2513c:	00237140 	call	23714 <__sprint_r>
   25140:	103ac71e 	bne	r2,zero,23c60 <___vfprintf_internal_r+0x518>
   25144:	da011d17 	ldw	r8,1140(sp)
   25148:	d8c11c17 	ldw	r3,1136(sp)
   2514c:	da400404 	addi	r9,sp,16
   25150:	d8813217 	ldw	r2,1224(sp)
   25154:	4cc00015 	stw	r19,0(r9)
   25158:	48800115 	stw	r2,4(r9)
   2515c:	4091883a 	add	r8,r8,r2
   25160:	003c6206 	br	242ec <___vfprintf_internal_r+0xba4>
   25164:	00800b44 	movi	r2,45
   25168:	d8812585 	stb	r2,1174(sp)
   2516c:	003b2406 	br	23e00 <___vfprintf_internal_r+0x6b8>
   25170:	4d000015 	stw	r20,0(r9)
   25174:	4c800115 	stw	r18,4(r9)
   25178:	4491883a 	add	r8,r8,r18
   2517c:	18c00044 	addi	r3,r3,1
   25180:	da011d15 	stw	r8,1140(sp)
   25184:	d8c11c15 	stw	r3,1136(sp)
   25188:	008001c4 	movi	r2,7
   2518c:	10ffe816 	blt	r2,r3,25130 <___vfprintf_internal_r+0x19e8>
   25190:	4a400204 	addi	r9,r9,8
   25194:	003fee06 	br	25150 <___vfprintf_internal_r+0x1a08>
   25198:	d8c12b15 	stw	r3,1196(sp)
   2519c:	00800184 	movi	r2,6
   251a0:	10c0062e 	bgeu	r2,r3,251bc <___vfprintf_internal_r+0x1a74>
   251a4:	d8812b15 	stw	r2,1196(sp)
   251a8:	d8812815 	stw	r2,1184(sp)
   251ac:	ddc12d15 	stw	r23,1204(sp)
   251b0:	04c000f4 	movhi	r19,3
   251b4:	9cfa0504 	addi	r19,r19,-6124
   251b8:	0039ca06 	br	238e4 <___vfprintf_internal_r+0x19c>
   251bc:	d8812b17 	ldw	r2,1196(sp)
   251c0:	d8812815 	stw	r2,1184(sp)
   251c4:	103ff90e 	bge	r2,zero,251ac <___vfprintf_internal_r+0x1a64>
   251c8:	d8012815 	stw	zero,1184(sp)
   251cc:	003ff706 	br	251ac <___vfprintf_internal_r+0x1a64>
   251d0:	00800244 	movi	r2,9
   251d4:	15fdaa36 	bltu	r2,r23,24880 <___vfprintf_internal_r+0x1138>
   251d8:	dd010e04 	addi	r20,sp,1080
   251dc:	003dc606 	br	248f8 <___vfprintf_internal_r+0x11b0>
   251e0:	d9412917 	ldw	r5,1188(sp)
   251e4:	8809883a 	mov	r4,r17
   251e8:	d9811b04 	addi	r6,sp,1132
   251ec:	00237140 	call	23714 <__sprint_r>
   251f0:	103a9b1e 	bne	r2,zero,23c60 <___vfprintf_internal_r+0x518>
   251f4:	dc812417 	ldw	r18,1168(sp)
   251f8:	da400404 	addi	r9,sp,16
   251fc:	003ecd06 	br	24d34 <___vfprintf_internal_r+0x15ec>
   25200:	d9412917 	ldw	r5,1188(sp)
   25204:	8809883a 	mov	r4,r17
   25208:	d9811b04 	addi	r6,sp,1132
   2520c:	00237140 	call	23714 <__sprint_r>
   25210:	103a931e 	bne	r2,zero,23c60 <___vfprintf_internal_r+0x518>
   25214:	dc812417 	ldw	r18,1168(sp)
   25218:	da011d17 	ldw	r8,1140(sp)
   2521c:	d8c11c17 	ldw	r3,1136(sp)
   25220:	da400404 	addi	r9,sp,16
   25224:	003eb706 	br	24d04 <___vfprintf_internal_r+0x15bc>
   25228:	d9412917 	ldw	r5,1188(sp)
   2522c:	8809883a 	mov	r4,r17
   25230:	d9811b04 	addi	r6,sp,1132
   25234:	00237140 	call	23714 <__sprint_r>
   25238:	103a891e 	bne	r2,zero,23c60 <___vfprintf_internal_r+0x518>
   2523c:	dc812417 	ldw	r18,1168(sp)
   25240:	da011d17 	ldw	r8,1140(sp)
   25244:	da400404 	addi	r9,sp,16
   25248:	003dc206 	br	24954 <___vfprintf_internal_r+0x120c>
   2524c:	df012815 	stw	fp,1184(sp)
   25250:	d8812583 	ldbu	r2,1174(sp)
   25254:	df012b15 	stw	fp,1196(sp)
   25258:	ddc12d15 	stw	r23,1204(sp)
   2525c:	d8013115 	stw	zero,1220(sp)
   25260:	003ac606 	br	23d7c <___vfprintf_internal_r+0x634>
   25264:	d8812404 	addi	r2,sp,1168
   25268:	d8800115 	stw	r2,4(sp)
   2526c:	d8812304 	addi	r2,sp,1164
   25270:	d8800215 	stw	r2,8(sp)
   25274:	d8812204 	addi	r2,sp,1160
   25278:	df000015 	stw	fp,0(sp)
   2527c:	d8800315 	stw	r2,12(sp)
   25280:	8809883a 	mov	r4,r17
   25284:	b00b883a 	mov	r5,r22
   25288:	a00d883a 	mov	r6,r20
   2528c:	01c000c4 	movi	r7,3
   25290:	da413c15 	stw	r9,1264(sp)
   25294:	0025a680 	call	25a68 <_dtoa_r>
   25298:	da413c17 	ldw	r9,1264(sp)
   2529c:	1027883a 	mov	r19,r2
   252a0:	1707883a 	add	r3,r2,fp
   252a4:	e02f883a 	mov	r23,fp
   252a8:	99000007 	ldb	r4,0(r19)
   252ac:	00800c04 	movi	r2,48
   252b0:	20800326 	beq	r4,r2,252c0 <___vfprintf_internal_r+0x1b78>
   252b4:	da812417 	ldw	r10,1168(sp)
   252b8:	1a87883a 	add	r3,r3,r10
   252bc:	003f1406 	br	24f10 <___vfprintf_internal_r+0x17c8>
   252c0:	b009883a 	mov	r4,r22
   252c4:	a00b883a 	mov	r5,r20
   252c8:	000d883a 	mov	r6,zero
   252cc:	000f883a 	mov	r7,zero
   252d0:	d8c13b15 	stw	r3,1260(sp)
   252d4:	da413c15 	stw	r9,1264(sp)
   252d8:	002a8300 	call	2a830 <__nedf2>
   252dc:	d8c13b17 	ldw	r3,1260(sp)
   252e0:	da413c17 	ldw	r9,1264(sp)
   252e4:	103ff326 	beq	r2,zero,252b4 <___vfprintf_internal_r+0x1b6c>
   252e8:	00800044 	movi	r2,1
   252ec:	15d5c83a 	sub	r10,r2,r23
   252f0:	da812415 	stw	r10,1168(sp)
   252f4:	1a87883a 	add	r3,r3,r10
   252f8:	003f0506 	br	24f10 <___vfprintf_internal_r+0x17c8>
   252fc:	d9412917 	ldw	r5,1188(sp)
   25300:	8809883a 	mov	r4,r17
   25304:	d9811b04 	addi	r6,sp,1132
   25308:	00237140 	call	23714 <__sprint_r>
   2530c:	103a541e 	bne	r2,zero,23c60 <___vfprintf_internal_r+0x518>
   25310:	dc812417 	ldw	r18,1168(sp)
   25314:	da011d17 	ldw	r8,1140(sp)
   25318:	d8c11c17 	ldw	r3,1136(sp)
   2531c:	da400404 	addi	r9,sp,16
   25320:	003eb206 	br	24dec <___vfprintf_internal_r+0x16a4>
   25324:	b82b883a 	mov	r21,r23
   25328:	0007883a 	mov	r3,zero
   2532c:	00396306 	br	238bc <___vfprintf_internal_r+0x174>
   25330:	04c000f4 	movhi	r19,3
   25334:	9cf9fa04 	addi	r19,r19,-6168
   25338:	003f4e06 	br	25074 <___vfprintf_internal_r+0x192c>
   2533c:	d8812583 	ldbu	r2,1174(sp)
   25340:	dc012a17 	ldw	r16,1192(sp)
   25344:	d8013115 	stw	zero,1220(sp)
   25348:	003a8c06 	br	23d7c <___vfprintf_internal_r+0x634>
   2534c:	d8812417 	ldw	r2,1168(sp)
   25350:	d8812b15 	stw	r2,1196(sp)
   25354:	1029883a 	mov	r20,r2
   25358:	00bfff44 	movi	r2,-3
   2535c:	a0800116 	blt	r20,r2,25364 <___vfprintf_internal_r+0x1c1c>
   25360:	e5001d0e 	bge	fp,r20,253d8 <___vfprintf_internal_r+0x1c90>
   25364:	94bfff84 	addi	r18,r18,-2
   25368:	a53fffc4 	addi	r20,r20,-1
   2536c:	dd012415 	stw	r20,1168(sp)
   25370:	dc811fc5 	stb	r18,1151(sp)
   25374:	a0007216 	blt	r20,zero,25540 <___vfprintf_internal_r+0x1df8>
   25378:	00800ac4 	movi	r2,43
   2537c:	d8812005 	stb	r2,1152(sp)
   25380:	00800244 	movi	r2,9
   25384:	15003516 	blt	r2,r20,2545c <___vfprintf_internal_r+0x1d14>
   25388:	00800c04 	movi	r2,48
   2538c:	a5000c04 	addi	r20,r20,48
   25390:	d8812045 	stb	r2,1153(sp)
   25394:	dd012085 	stb	r20,1154(sp)
   25398:	d8c120c4 	addi	r3,sp,1155
   2539c:	d8811fc4 	addi	r2,sp,1151
   253a0:	1885c83a 	sub	r2,r3,r2
   253a4:	d8c13217 	ldw	r3,1224(sp)
   253a8:	d8813515 	stw	r2,1236(sp)
   253ac:	1885883a 	add	r2,r3,r2
   253b0:	d8812b15 	stw	r2,1196(sp)
   253b4:	00800044 	movi	r2,1
   253b8:	10c0580e 	bge	r2,r3,2551c <___vfprintf_internal_r+0x1dd4>
   253bc:	d8812b17 	ldw	r2,1196(sp)
   253c0:	10800044 	addi	r2,r2,1
   253c4:	d8812b15 	stw	r2,1196(sp)
   253c8:	d8812815 	stw	r2,1184(sp)
   253cc:	103ef50e 	bge	r2,zero,24fa4 <___vfprintf_internal_r+0x185c>
   253d0:	d8012815 	stw	zero,1184(sp)
   253d4:	003ef306 	br	24fa4 <___vfprintf_internal_r+0x185c>
   253d8:	d8812b17 	ldw	r2,1196(sp)
   253dc:	d8c13217 	ldw	r3,1224(sp)
   253e0:	10c01416 	blt	r2,r3,25434 <___vfprintf_internal_r+0x1cec>
   253e4:	8400004c 	andi	r16,r16,1
   253e8:	80000326 	beq	r16,zero,253f8 <___vfprintf_internal_r+0x1cb0>
   253ec:	d8812b17 	ldw	r2,1196(sp)
   253f0:	10800044 	addi	r2,r2,1
   253f4:	d8812b15 	stw	r2,1196(sp)
   253f8:	d8812815 	stw	r2,1184(sp)
   253fc:	10001416 	blt	r2,zero,25450 <___vfprintf_internal_r+0x1d08>
   25400:	048019c4 	movi	r18,103
   25404:	003ee706 	br	24fa4 <___vfprintf_internal_r+0x185c>
   25408:	d8012815 	stw	zero,1184(sp)
   2540c:	003b1a06 	br	24078 <___vfprintf_internal_r+0x930>
   25410:	e03e9c1e 	bne	fp,zero,24e84 <___vfprintf_internal_r+0x173c>
   25414:	07000044 	movi	fp,1
   25418:	003e9a06 	br	24e84 <___vfprintf_internal_r+0x173c>
   2541c:	07000184 	movi	fp,6
   25420:	003e9806 	br	24e84 <___vfprintf_internal_r+0x173c>
   25424:	00c00b44 	movi	r3,45
   25428:	a520003c 	xorhi	r20,r20,32768
   2542c:	d8c12f05 	stb	r3,1212(sp)
   25430:	003e9806 	br	24e94 <___vfprintf_internal_r+0x174c>
   25434:	05003f0e 	bge	zero,r20,25534 <___vfprintf_internal_r+0x1dec>
   25438:	05000044 	movi	r20,1
   2543c:	d8c13217 	ldw	r3,1224(sp)
   25440:	a0e9883a 	add	r20,r20,r3
   25444:	dd012b15 	stw	r20,1196(sp)
   25448:	dd012815 	stw	r20,1184(sp)
   2544c:	a03fec0e 	bge	r20,zero,25400 <___vfprintf_internal_r+0x1cb8>
   25450:	d8012815 	stw	zero,1184(sp)
   25454:	048019c4 	movi	r18,103
   25458:	003ed206 	br	24fa4 <___vfprintf_internal_r+0x185c>
   2545c:	d8c11f84 	addi	r3,sp,1150
   25460:	102f883a 	mov	r23,r2
   25464:	4839883a 	mov	fp,r9
   25468:	a009883a 	mov	r4,r20
   2546c:	01400284 	movi	r5,10
   25470:	182d883a 	mov	r22,r3
   25474:	002ad380 	call	2ad38 <__modsi3>
   25478:	10800c04 	addi	r2,r2,48
   2547c:	a009883a 	mov	r4,r20
   25480:	b0800005 	stb	r2,0(r22)
   25484:	01400284 	movi	r5,10
   25488:	002ace80 	call	2ace8 <__divsi3>
   2548c:	1029883a 	mov	r20,r2
   25490:	b0ffffc4 	addi	r3,r22,-1
   25494:	b8bff416 	blt	r23,r2,25468 <___vfprintf_internal_r+0x1d20>
   25498:	11400c04 	addi	r5,r2,48
   2549c:	b17fffc5 	stb	r5,-1(r22)
   254a0:	d8811fc4 	addi	r2,sp,1151
   254a4:	e013883a 	mov	r9,fp
   254a8:	18803e2e 	bgeu	r3,r2,255a4 <___vfprintf_internal_r+0x1e5c>
   254ac:	b007883a 	mov	r3,r22
   254b0:	d9012044 	addi	r4,sp,1153
   254b4:	00000206 	br	254c0 <___vfprintf_internal_r+0x1d78>
   254b8:	19400003 	ldbu	r5,0(r3)
   254bc:	18c00044 	addi	r3,r3,1
   254c0:	21400005 	stb	r5,0(r4)
   254c4:	21000044 	addi	r4,r4,1
   254c8:	10fffb1e 	bne	r2,r3,254b8 <___vfprintf_internal_r+0x1d70>
   254cc:	d8c12004 	addi	r3,sp,1152
   254d0:	1d87c83a 	sub	r3,r3,r22
   254d4:	d9012044 	addi	r4,sp,1153
   254d8:	20c7883a 	add	r3,r4,r3
   254dc:	003fb006 	br	253a0 <___vfprintf_internal_r+0x1c58>
   254e0:	e5c00044 	addi	r23,fp,1
   254e4:	003e7406 	br	24eb8 <___vfprintf_internal_r+0x1770>
   254e8:	d8c12217 	ldw	r3,1160(sp)
   254ec:	003e9906 	br	24f54 <___vfprintf_internal_r+0x180c>
   254f0:	d9012d17 	ldw	r4,1204(sp)
   254f4:	ac800043 	ldbu	r18,1(r21)
   254f8:	b82b883a 	mov	r21,r23
   254fc:	20c00017 	ldw	r3,0(r4)
   25500:	20800104 	addi	r2,r4,4
   25504:	d8812d15 	stw	r2,1204(sp)
   25508:	18002116 	blt	r3,zero,25590 <___vfprintf_internal_r+0x1e48>
   2550c:	94803fcc 	andi	r18,r18,255
   25510:	9480201c 	xori	r18,r18,128
   25514:	94bfe004 	addi	r18,r18,-128
   25518:	0038e706 	br	238b8 <___vfprintf_internal_r+0x170>
   2551c:	80a0703a 	and	r16,r16,r2
   25520:	803fa61e 	bne	r16,zero,253bc <___vfprintf_internal_r+0x1c74>
   25524:	d8812b17 	ldw	r2,1196(sp)
   25528:	d8812815 	stw	r2,1184(sp)
   2552c:	103e9d0e 	bge	r2,zero,24fa4 <___vfprintf_internal_r+0x185c>
   25530:	003fa706 	br	253d0 <___vfprintf_internal_r+0x1c88>
   25534:	00800084 	movi	r2,2
   25538:	1529c83a 	sub	r20,r2,r20
   2553c:	003fbf06 	br	2543c <___vfprintf_internal_r+0x1cf4>
   25540:	00800b44 	movi	r2,45
   25544:	0529c83a 	sub	r20,zero,r20
   25548:	d8812005 	stb	r2,1152(sp)
   2554c:	003f8c06 	br	25380 <___vfprintf_internal_r+0x1c38>
   25550:	008011c4 	movi	r2,71
   25554:	90be6926 	beq	r18,r2,24efc <___vfprintf_internal_r+0x17b4>
   25558:	003e6a06 	br	24f04 <___vfprintf_internal_r+0x17bc>
   2555c:	00bfffc4 	movi	r2,-1
   25560:	d8812c15 	stw	r2,1200(sp)
   25564:	0039ad06 	br	23c1c <___vfprintf_internal_r+0x4d4>
   25568:	1007883a 	mov	r3,r2
   2556c:	003e7906 	br	24f54 <___vfprintf_internal_r+0x180c>
   25570:	e000021e 	bne	fp,zero,2557c <___vfprintf_internal_r+0x1e34>
   25574:	8400004c 	andi	r16,r16,1
   25578:	80000e26 	beq	r16,zero,255b4 <___vfprintf_internal_r+0x1e6c>
   2557c:	e7000084 	addi	fp,fp,2
   25580:	df012b15 	stw	fp,1196(sp)
   25584:	df012815 	stw	fp,1184(sp)
   25588:	e03e860e 	bge	fp,zero,24fa4 <___vfprintf_internal_r+0x185c>
   2558c:	003f9006 	br	253d0 <___vfprintf_internal_r+0x1c88>
   25590:	94803fcc 	andi	r18,r18,255
   25594:	9480201c 	xori	r18,r18,128
   25598:	00ffffc4 	movi	r3,-1
   2559c:	94bfe004 	addi	r18,r18,-128
   255a0:	0038c506 	br	238b8 <___vfprintf_internal_r+0x170>
   255a4:	d8c12044 	addi	r3,sp,1153
   255a8:	003f7d06 	br	253a0 <___vfprintf_internal_r+0x1c58>
   255ac:	dd012417 	ldw	r20,1168(sp)
   255b0:	003f6d06 	br	25368 <___vfprintf_internal_r+0x1c20>
   255b4:	00c00044 	movi	r3,1
   255b8:	d8c12815 	stw	r3,1184(sp)
   255bc:	d8c12b15 	stw	r3,1196(sp)
   255c0:	003e7806 	br	24fa4 <___vfprintf_internal_r+0x185c>

000255c4 <__vfprintf_internal>:
   255c4:	008000f4 	movhi	r2,3
   255c8:	10815204 	addi	r2,r2,1352
   255cc:	2007883a 	mov	r3,r4
   255d0:	11000017 	ldw	r4,0(r2)
   255d4:	2805883a 	mov	r2,r5
   255d8:	300f883a 	mov	r7,r6
   255dc:	180b883a 	mov	r5,r3
   255e0:	100d883a 	mov	r6,r2
   255e4:	00237481 	jmpi	23748 <___vfprintf_internal_r>

000255e8 <_write_r>:
   255e8:	defffd04 	addi	sp,sp,-12
   255ec:	dc400115 	stw	r17,4(sp)
   255f0:	dc000015 	stw	r16,0(sp)
   255f4:	2023883a 	mov	r17,r4
   255f8:	040000f4 	movhi	r16,3
   255fc:	84082404 	addi	r16,r16,8336
   25600:	2809883a 	mov	r4,r5
   25604:	300b883a 	mov	r5,r6
   25608:	380d883a 	mov	r6,r7
   2560c:	dfc00215 	stw	ra,8(sp)
   25610:	80000015 	stw	zero,0(r16)
   25614:	002bf400 	call	2bf40 <write>
   25618:	00ffffc4 	movi	r3,-1
   2561c:	10c00526 	beq	r2,r3,25634 <_write_r+0x4c>
   25620:	dfc00217 	ldw	ra,8(sp)
   25624:	dc400117 	ldw	r17,4(sp)
   25628:	dc000017 	ldw	r16,0(sp)
   2562c:	dec00304 	addi	sp,sp,12
   25630:	f800283a 	ret
   25634:	80c00017 	ldw	r3,0(r16)
   25638:	183ff926 	beq	r3,zero,25620 <_write_r+0x38>
   2563c:	88c00015 	stw	r3,0(r17)
   25640:	dfc00217 	ldw	ra,8(sp)
   25644:	dc400117 	ldw	r17,4(sp)
   25648:	dc000017 	ldw	r16,0(sp)
   2564c:	dec00304 	addi	sp,sp,12
   25650:	f800283a 	ret

00025654 <__swsetup_r>:
   25654:	008000f4 	movhi	r2,3
   25658:	10815204 	addi	r2,r2,1352
   2565c:	10800017 	ldw	r2,0(r2)
   25660:	defffd04 	addi	sp,sp,-12
   25664:	dc400115 	stw	r17,4(sp)
   25668:	dc000015 	stw	r16,0(sp)
   2566c:	dfc00215 	stw	ra,8(sp)
   25670:	2023883a 	mov	r17,r4
   25674:	2821883a 	mov	r16,r5
